Archive member included to satisfy reference by file (symbol)

C:/Users/fg7fww/_Install/App/DemoBoards/RSL10/Packages_RSL10_2.0/ONSemiconductor/RSL10/2.0.0//lib/ble_core/release\libblelib.a(rwip.o)
                              ./code/ble_std.o (BLE_Reset)
C:/Users/fg7fww/_Install/App/DemoBoards/RSL10/Packages_RSL10_2.0/ONSemiconductor/RSL10/2.0.0//lib/ble_core/release\libblelib.a(rwble.o)
                              C:/Users/fg7fww/_Install/App/DemoBoards/RSL10/Packages_RSL10_2.0/ONSemiconductor/RSL10/2.0.0//lib/ble_core/release\libblelib.a(rwip.o) (rwble_init)
C:/Users/fg7fww/_Install/App/DemoBoards/RSL10/Packages_RSL10_2.0/ONSemiconductor/RSL10/2.0.0//lib/ble_core/release\libblelib.a(rf_atlas.o)
                              C:/Users/fg7fww/_Install/App/DemoBoards/RSL10/Packages_RSL10_2.0/ONSemiconductor/RSL10/2.0.0//lib/ble_core/release\libblelib.a(rwip.o) (rf_init)
C:/Users/fg7fww/_Install/App/DemoBoards/RSL10/Packages_RSL10_2.0/ONSemiconductor/RSL10/2.0.0//lib/ble_core/release\libblelib.a(prf-prf_utils.o)
                              ./code/ble_bass.o (prf_env_get)
C:/Users/fg7fww/_Install/App/DemoBoards/RSL10/Packages_RSL10_2.0/ONSemiconductor/RSL10/2.0.0//lib/ble_core/release\libblelib.a(lld_evt.o)
                              C:/Users/fg7fww/_Install/App/DemoBoards/RSL10/Packages_RSL10_2.0/ONSemiconductor/RSL10/2.0.0//lib/ble_core/release\libblelib.a(rwble.o) (lld_evt_env)
C:/Users/fg7fww/_Install/App/DemoBoards/RSL10/Packages_RSL10_2.0/ONSemiconductor/RSL10/2.0.0//lib/ble_core/release\libblelib.a(lld_sleep.o)
                              C:/Users/fg7fww/_Install/App/DemoBoards/RSL10/Packages_RSL10_2.0/ONSemiconductor/RSL10/2.0.0//lib/ble_core/release\libblelib.a(rwip.o) (lld_sleep_params)
C:/Users/fg7fww/_Install/App/DemoBoards/RSL10/Packages_RSL10_2.0/ONSemiconductor/RSL10/2.0.0//lib/ble_core/release\libblelib.a(hci.o)
                              C:/Users/fg7fww/_Install/App/DemoBoards/RSL10/Packages_RSL10_2.0/ONSemiconductor/RSL10/2.0.0//lib/ble_core/release\libblelib.a(rwip.o) (hci_reset)
C:/Users/fg7fww/_Install/App/DemoBoards/RSL10/Packages_RSL10_2.0/ONSemiconductor/RSL10/2.0.0//lib/ble_core/release\libblelib.a(hci_fc.o)
                              C:/Users/fg7fww/_Install/App/DemoBoards/RSL10/Packages_RSL10_2.0/ONSemiconductor/RSL10/2.0.0//lib/ble_core/release\libblelib.a(hci.o) (hci_fc_init)
C:/Users/fg7fww/_Install/App/DemoBoards/RSL10/Packages_RSL10_2.0/ONSemiconductor/RSL10/2.0.0//lib/ble_core/release\libblelib.a(hci_msg.o)
                              C:/Users/fg7fww/_Install/App/DemoBoards/RSL10/Packages_RSL10_2.0/ONSemiconductor/RSL10/2.0.0//lib/ble_core/release\libblelib.a(hci.o) (hci_look_for_cmd_desc)
C:/Users/fg7fww/_Install/App/DemoBoards/RSL10/Packages_RSL10_2.0/ONSemiconductor/RSL10/2.0.0//lib/ble_core/release\libblelib.a(llm.o)
                              C:/Users/fg7fww/_Install/App/DemoBoards/RSL10/Packages_RSL10_2.0/ONSemiconductor/RSL10/2.0.0//lib/ble_core/release\libblelib.a(rwip.o) (llm_le_env)
C:/Users/fg7fww/_Install/App/DemoBoards/RSL10/Packages_RSL10_2.0/ONSemiconductor/RSL10/2.0.0//lib/ble_core/release\libblelib.a(llm_task.o)
                              C:/Users/fg7fww/_Install/App/DemoBoards/RSL10/Packages_RSL10_2.0/ONSemiconductor/RSL10/2.0.0//lib/ble_core/release\libblelib.a(llm.o) (llm_state)
C:/Users/fg7fww/_Install/App/DemoBoards/RSL10/Packages_RSL10_2.0/ONSemiconductor/RSL10/2.0.0//lib/ble_core/release\libblelib.a(llm_util.o)
                              C:/Users/fg7fww/_Install/App/DemoBoards/RSL10/Packages_RSL10_2.0/ONSemiconductor/RSL10/2.0.0//lib/ble_core/release\libblelib.a(llm.o) (llm_util_bd_addr_wl_position)
C:/Users/fg7fww/_Install/App/DemoBoards/RSL10/Packages_RSL10_2.0/ONSemiconductor/RSL10/2.0.0//lib/ble_core/release\libblelib.a(lld.o)
                              C:/Users/fg7fww/_Install/App/DemoBoards/RSL10/Packages_RSL10_2.0/ONSemiconductor/RSL10/2.0.0//lib/ble_core/release\libblelib.a(rwble.o) (lld_init)
C:/Users/fg7fww/_Install/App/DemoBoards/RSL10/Packages_RSL10_2.0/ONSemiconductor/RSL10/2.0.0//lib/ble_core/release\libblelib.a(lld_pdu.o)
                              C:/Users/fg7fww/_Install/App/DemoBoards/RSL10/Packages_RSL10_2.0/ONSemiconductor/RSL10/2.0.0//lib/ble_core/release\libblelib.a(lld_evt.o) (lld_pdu_check)
C:/Users/fg7fww/_Install/App/DemoBoards/RSL10/Packages_RSL10_2.0/ONSemiconductor/RSL10/2.0.0//lib/ble_core/release\libblelib.a(lld_util.o)
                              C:/Users/fg7fww/_Install/App/DemoBoards/RSL10/Packages_RSL10_2.0/ONSemiconductor/RSL10/2.0.0//lib/ble_core/release\libblelib.a(llm_util.o) (lld_util_set_bd_address)
C:/Users/fg7fww/_Install/App/DemoBoards/RSL10/Packages_RSL10_2.0/ONSemiconductor/RSL10/2.0.0//lib/ble_core/release\libblelib.a(lld_wlcoex.o)
                              C:/Users/fg7fww/_Install/App/DemoBoards/RSL10/Packages_RSL10_2.0/ONSemiconductor/RSL10/2.0.0//lib/ble_core/release\libblelib.a(rwip.o) (lld_wlcoex_set)
C:/Users/fg7fww/_Install/App/DemoBoards/RSL10/Packages_RSL10_2.0/ONSemiconductor/RSL10/2.0.0//lib/ble_core/release\libblelib.a(llc.o)
                              C:/Users/fg7fww/_Install/App/DemoBoards/RSL10/Packages_RSL10_2.0/ONSemiconductor/RSL10/2.0.0//lib/ble_core/release\libblelib.a(rwble.o) (llc_init)
C:/Users/fg7fww/_Install/App/DemoBoards/RSL10/Packages_RSL10_2.0/ONSemiconductor/RSL10/2.0.0//lib/ble_core/release\libblelib.a(llc_llcp.o)
                              C:/Users/fg7fww/_Install/App/DemoBoards/RSL10/Packages_RSL10_2.0/ONSemiconductor/RSL10/2.0.0//lib/ble_core/release\libblelib.a(lld_pdu.o) (llc_llcp_recv_handler)
C:/Users/fg7fww/_Install/App/DemoBoards/RSL10/Packages_RSL10_2.0/ONSemiconductor/RSL10/2.0.0//lib/ble_core/release\libblelib.a(llc_task.o)
                              C:/Users/fg7fww/_Install/App/DemoBoards/RSL10/Packages_RSL10_2.0/ONSemiconductor/RSL10/2.0.0//lib/ble_core/release\libblelib.a(llc.o) (llc_state)
C:/Users/fg7fww/_Install/App/DemoBoards/RSL10/Packages_RSL10_2.0/ONSemiconductor/RSL10/2.0.0//lib/ble_core/release\libblelib.a(llc_util.o)
                              C:/Users/fg7fww/_Install/App/DemoBoards/RSL10/Packages_RSL10_2.0/ONSemiconductor/RSL10/2.0.0//lib/ble_core/release\libblelib.a(llm.o) (llc_util_get_free_conhdl)
C:/Users/fg7fww/_Install/App/DemoBoards/RSL10/Packages_RSL10_2.0/ONSemiconductor/RSL10/2.0.0//lib/ble_core/release\libblelib.a(em_buf.o)
                              C:/Users/fg7fww/_Install/App/DemoBoards/RSL10/Packages_RSL10_2.0/ONSemiconductor/RSL10/2.0.0//lib/ble_core/release\libblelib.a(rwble.o) (em_buf_init)
C:/Users/fg7fww/_Install/App/DemoBoards/RSL10/Packages_RSL10_2.0/ONSemiconductor/RSL10/2.0.0//lib/ble_core/release\libblelib.a(rwble_hl.o)
                              C:/Users/fg7fww/_Install/App/DemoBoards/RSL10/Packages_RSL10_2.0/ONSemiconductor/RSL10/2.0.0//lib/ble_core/release\libblelib.a(rwip.o) (rwble_hl_init)
C:/Users/fg7fww/_Install/App/DemoBoards/RSL10/Packages_RSL10_2.0/ONSemiconductor/RSL10/2.0.0//lib/ble_core/release\libblelib.a(l2cm.o)
                              C:/Users/fg7fww/_Install/App/DemoBoards/RSL10/Packages_RSL10_2.0/ONSemiconductor/RSL10/2.0.0//lib/ble_core/release\libblelib.a(rwble_hl.o) (l2cm_init)
C:/Users/fg7fww/_Install/App/DemoBoards/RSL10/Packages_RSL10_2.0/ONSemiconductor/RSL10/2.0.0//lib/ble_core/release\libblelib.a(l2cc.o)
                              C:/Users/fg7fww/_Install/App/DemoBoards/RSL10/Packages_RSL10_2.0/ONSemiconductor/RSL10/2.0.0//lib/ble_core/release\libblelib.a(l2cm.o) (l2cc_create)
C:/Users/fg7fww/_Install/App/DemoBoards/RSL10/Packages_RSL10_2.0/ONSemiconductor/RSL10/2.0.0//lib/ble_core/release\libblelib.a(l2cc_lecb.o)
                              C:/Users/fg7fww/_Install/App/DemoBoards/RSL10/Packages_RSL10_2.0/ONSemiconductor/RSL10/2.0.0//lib/ble_core/release\libblelib.a(l2cc.o) (l2cc_lecb_find)
C:/Users/fg7fww/_Install/App/DemoBoards/RSL10/Packages_RSL10_2.0/ONSemiconductor/RSL10/2.0.0//lib/ble_core/release\libblelib.a(l2cc_pdu.o)
                              C:/Users/fg7fww/_Install/App/DemoBoards/RSL10/Packages_RSL10_2.0/ONSemiconductor/RSL10/2.0.0//lib/ble_core/release\libblelib.a(l2cc.o) (l2cc_lecb_pdu_pack)
C:/Users/fg7fww/_Install/App/DemoBoards/RSL10/Packages_RSL10_2.0/ONSemiconductor/RSL10/2.0.0//lib/ble_core/release\libblelib.a(l2cc_task.o)
                              C:/Users/fg7fww/_Install/App/DemoBoards/RSL10/Packages_RSL10_2.0/ONSemiconductor/RSL10/2.0.0//lib/ble_core/release\libblelib.a(l2cc_lecb.o) (l2cc_pdu_alloc)
C:/Users/fg7fww/_Install/App/DemoBoards/RSL10/Packages_RSL10_2.0/ONSemiconductor/RSL10/2.0.0//lib/ble_core/release\libblelib.a(gattm.o)
                              C:/Users/fg7fww/_Install/App/DemoBoards/RSL10/Packages_RSL10_2.0/ONSemiconductor/RSL10/2.0.0//lib/ble_core/release\libblelib.a(rwble_hl.o) (gattm_init)
C:/Users/fg7fww/_Install/App/DemoBoards/RSL10/Packages_RSL10_2.0/ONSemiconductor/RSL10/2.0.0//lib/ble_core/release\libblelib.a(gattm_task.o)
                              C:/Users/fg7fww/_Install/App/DemoBoards/RSL10/Packages_RSL10_2.0/ONSemiconductor/RSL10/2.0.0//lib/ble_core/release\libblelib.a(gattm.o) (gattm_state)
C:/Users/fg7fww/_Install/App/DemoBoards/RSL10/Packages_RSL10_2.0/ONSemiconductor/RSL10/2.0.0//lib/ble_core/release\libblelib.a(gattc.o)
                              C:/Users/fg7fww/_Install/App/DemoBoards/RSL10/Packages_RSL10_2.0/ONSemiconductor/RSL10/2.0.0//lib/ble_core/release\libblelib.a(l2cc_pdu.o) (gattc_get_mtu)
C:/Users/fg7fww/_Install/App/DemoBoards/RSL10/Packages_RSL10_2.0/ONSemiconductor/RSL10/2.0.0//lib/ble_core/release\libblelib.a(gattc_task.o)
                              C:/Users/fg7fww/_Install/App/DemoBoards/RSL10/Packages_RSL10_2.0/ONSemiconductor/RSL10/2.0.0//lib/ble_core/release\libblelib.a(gattc.o) (gattc_state)
C:/Users/fg7fww/_Install/App/DemoBoards/RSL10/Packages_RSL10_2.0/ONSemiconductor/RSL10/2.0.0//lib/ble_core/release\libblelib.a(atts.o)
                              C:/Users/fg7fww/_Install/App/DemoBoards/RSL10/Packages_RSL10_2.0/ONSemiconductor/RSL10/2.0.0//lib/ble_core/release\libblelib.a(gattc_task.o) (atts_send_error)
C:/Users/fg7fww/_Install/App/DemoBoards/RSL10/Packages_RSL10_2.0/ONSemiconductor/RSL10/2.0.0//lib/ble_core/release\libblelib.a(attm.o)
                              C:/Users/fg7fww/_Install/App/DemoBoards/RSL10/Packages_RSL10_2.0/ONSemiconductor/RSL10/2.0.0//lib/ble_core/release\libblelib.a(gattc_task.o) (attm_convert_to128)
C:/Users/fg7fww/_Install/App/DemoBoards/RSL10/Packages_RSL10_2.0/ONSemiconductor/RSL10/2.0.0//lib/ble_core/release\libblelib.a(attm_db.o)
                              C:/Users/fg7fww/_Install/App/DemoBoards/RSL10/Packages_RSL10_2.0/ONSemiconductor/RSL10/2.0.0//lib/ble_core/release\libblelib.a(attm.o) (attmdb_svc_check_hdl)
C:/Users/fg7fww/_Install/App/DemoBoards/RSL10/Packages_RSL10_2.0/ONSemiconductor/RSL10/2.0.0//lib/ble_core/release\libblelib.a(attc.o)
                              C:/Users/fg7fww/_Install/App/DemoBoards/RSL10/Packages_RSL10_2.0/ONSemiconductor/RSL10/2.0.0//lib/ble_core/release\libblelib.a(gattc_task.o) (attc_send_att_req)
C:/Users/fg7fww/_Install/App/DemoBoards/RSL10/Packages_RSL10_2.0/ONSemiconductor/RSL10/2.0.0//lib/ble_core/release\libblelib.a(gapm.o)
                              C:/Users/fg7fww/_Install/App/DemoBoards/RSL10/Packages_RSL10_2.0/ONSemiconductor/RSL10/2.0.0//lib/ble_core/release\libblelib.a(rwip.o) (gapm_env)
C:/Users/fg7fww/_Install/App/DemoBoards/RSL10/Packages_RSL10_2.0/ONSemiconductor/RSL10/2.0.0//lib/ble_core/release\libblelib.a(gapm_task.o)
                              C:/Users/fg7fww/_Install/App/DemoBoards/RSL10/Packages_RSL10_2.0/ONSemiconductor/RSL10/2.0.0//lib/ble_core/release\libblelib.a(gapm.o) (gapm_state)
C:/Users/fg7fww/_Install/App/DemoBoards/RSL10/Packages_RSL10_2.0/ONSemiconductor/RSL10/2.0.0//lib/ble_core/release\libblelib.a(gapm_util.o)
                              C:/Users/fg7fww/_Install/App/DemoBoards/RSL10/Packages_RSL10_2.0/ONSemiconductor/RSL10/2.0.0//lib/ble_core/release\libblelib.a(gapm_task.o) (gapm_adv_op_sanity)
C:/Users/fg7fww/_Install/App/DemoBoards/RSL10/Packages_RSL10_2.0/ONSemiconductor/RSL10/2.0.0//lib/ble_core/release\libblelib.a(gapc.o)
                              C:/Users/fg7fww/_Install/App/DemoBoards/RSL10/Packages_RSL10_2.0/ONSemiconductor/RSL10/2.0.0//lib/ble_core/release\libblelib.a(gapm.o) (gapc_con_create)
C:/Users/fg7fww/_Install/App/DemoBoards/RSL10/Packages_RSL10_2.0/ONSemiconductor/RSL10/2.0.0//lib/ble_core/release\libblelib.a(gapc_task.o)
                              C:/Users/fg7fww/_Install/App/DemoBoards/RSL10/Packages_RSL10_2.0/ONSemiconductor/RSL10/2.0.0//lib/ble_core/release\libblelib.a(gapc.o) (gapc_state)
C:/Users/fg7fww/_Install/App/DemoBoards/RSL10/Packages_RSL10_2.0/ONSemiconductor/RSL10/2.0.0//lib/ble_core/release\libblelib.a(ecc_p256.o)
                              C:/Users/fg7fww/_Install/App/DemoBoards/RSL10/Packages_RSL10_2.0/ONSemiconductor/RSL10/2.0.0//lib/ble_core/release\libblelib.a(rwip.o) (ecc_init)
C:/Users/fg7fww/_Install/App/DemoBoards/RSL10/Packages_RSL10_2.0/ONSemiconductor/RSL10/2.0.0//lib/ble_core/release\libblelib.a(ea.o)
                              C:/Users/fg7fww/_Install/App/DemoBoards/RSL10/Packages_RSL10_2.0/ONSemiconductor/RSL10/2.0.0//lib/ble_core/release\libblelib.a(rwip.o) (ea_init)
C:/Users/fg7fww/_Install/App/DemoBoards/RSL10/Packages_RSL10_2.0/ONSemiconductor/RSL10/2.0.0//lib/ble_core/release\libblelib.a(llm_hci.o)
                              C:/Users/fg7fww/_Install/App/DemoBoards/RSL10/Packages_RSL10_2.0/ONSemiconductor/RSL10/2.0.0//lib/ble_core/release\libblelib.a(llm_task.o) (hci_command_handler)
C:/Users/fg7fww/_Install/App/DemoBoards/RSL10/Packages_RSL10_2.0/ONSemiconductor/RSL10/2.0.0//lib/ble_core/release\libblelib.a(llc_ch_asses.o)
                              C:/Users/fg7fww/_Install/App/DemoBoards/RSL10/Packages_RSL10_2.0/ONSemiconductor/RSL10/2.0.0//lib/ble_core/release\libblelib.a(llc_util.o) (llc_ch_assess_local)
C:/Users/fg7fww/_Install/App/DemoBoards/RSL10/Packages_RSL10_2.0/ONSemiconductor/RSL10/2.0.0//lib/ble_core/release\libblelib.a(llc_hci.o)
                              C:/Users/fg7fww/_Install/App/DemoBoards/RSL10/Packages_RSL10_2.0/ONSemiconductor/RSL10/2.0.0//lib/ble_core/release\libblelib.a(llc_task.o) (llc_hci_command_handler)
C:/Users/fg7fww/_Install/App/DemoBoards/RSL10/Packages_RSL10_2.0/ONSemiconductor/RSL10/2.0.0//lib/ble_core/release\libblelib.a(l2cc_sig.o)
                              C:/Users/fg7fww/_Install/App/DemoBoards/RSL10/Packages_RSL10_2.0/ONSemiconductor/RSL10/2.0.0//lib/ble_core/release\libblelib.a(l2cc_task.o) (l2cc_sig_send_cmd_reject)
C:/Users/fg7fww/_Install/App/DemoBoards/RSL10/Packages_RSL10_2.0/ONSemiconductor/RSL10/2.0.0//lib/ble_core/release\libblelib.a(smpm_api.o)
                              C:/Users/fg7fww/_Install/App/DemoBoards/RSL10/Packages_RSL10_2.0/ONSemiconductor/RSL10/2.0.0//lib/ble_core/release\libblelib.a(gapm_task.o) (smpm_gen_rand_addr)
C:/Users/fg7fww/_Install/App/DemoBoards/RSL10/Packages_RSL10_2.0/ONSemiconductor/RSL10/2.0.0//lib/ble_core/release\libblelib.a(smpc.o)
                              C:/Users/fg7fww/_Install/App/DemoBoards/RSL10/Packages_RSL10_2.0/ONSemiconductor/RSL10/2.0.0//lib/ble_core/release\libblelib.a(gapc.o) (smpc_clear_timeout_timer)
C:/Users/fg7fww/_Install/App/DemoBoards/RSL10/Packages_RSL10_2.0/ONSemiconductor/RSL10/2.0.0//lib/ble_core/release\libblelib.a(smpc_api.o)
                              C:/Users/fg7fww/_Install/App/DemoBoards/RSL10/Packages_RSL10_2.0/ONSemiconductor/RSL10/2.0.0//lib/ble_core/release\libblelib.a(gapc_task.o) (smpc_pairing_start)
C:/Users/fg7fww/_Install/App/DemoBoards/RSL10/Packages_RSL10_2.0/ONSemiconductor/RSL10/2.0.0//lib/ble_core/release\libblelib.a(smpc_crypto.o)
                              C:/Users/fg7fww/_Install/App/DemoBoards/RSL10/Packages_RSL10_2.0/ONSemiconductor/RSL10/2.0.0//lib/ble_core/release\libblelib.a(smpc_api.o) (smpc_f4_complete)
C:/Users/fg7fww/_Install/App/DemoBoards/RSL10/Packages_RSL10_2.0/ONSemiconductor/RSL10/2.0.0//lib/ble_core/release\libblelib.a(smpc_util.o)
                              C:/Users/fg7fww/_Install/App/DemoBoards/RSL10/Packages_RSL10_2.0/ONSemiconductor/RSL10/2.0.0//lib/ble_core/release\libblelib.a(smpc.o) (smpc_check_param)
C:/Users/fg7fww/_Install/App/DemoBoards/RSL10/Packages_RSL10_2.0/ONSemiconductor/RSL10/2.0.0//lib/ble_core/release\libblelib.a(gapm_hci.o)
                              C:/Users/fg7fww/_Install/App/DemoBoards/RSL10/Packages_RSL10_2.0/ONSemiconductor/RSL10/2.0.0//lib/ble_core/release\libblelib.a(gapm_task.o) (gapm_hci_handler)
C:/Users/fg7fww/_Install/App/DemoBoards/RSL10/Packages_RSL10_2.0/ONSemiconductor/RSL10/2.0.0//lib/ble_core/release\libblelib.a(gapc_hci.o)
                              C:/Users/fg7fww/_Install/App/DemoBoards/RSL10/Packages_RSL10_2.0/ONSemiconductor/RSL10/2.0.0//lib/ble_core/release\libblelib.a(gapc_task.o) (gapc_hci_handler)
C:/Users/fg7fww/_Install/App/DemoBoards/RSL10/Packages_RSL10_2.0/ONSemiconductor/RSL10/2.0.0//lib/ble_core/release\libblelib.a(gapc_sig.o)
                              C:/Users/fg7fww/_Install/App/DemoBoards/RSL10/Packages_RSL10_2.0/ONSemiconductor/RSL10/2.0.0//lib/ble_core/release\libblelib.a(gapc_task.o) (gapc_sig_send_param_resp)
C:/Users/fg7fww/_Install/App/DemoBoards/RSL10/Packages_RSL10_2.0/ONSemiconductor/RSL10/2.0.0//lib/ble_core/release\libkelib.a(ke.o)
                              C:/Users/fg7fww/_Install/App/DemoBoards/RSL10/Packages_RSL10_2.0/ONSemiconductor/RSL10/2.0.0//lib/ble_core/release\libblelib.a(rwip.o) (ke_flush)
C:/Users/fg7fww/_Install/App/DemoBoards/RSL10/Packages_RSL10_2.0/ONSemiconductor/RSL10/2.0.0//lib/ble_core/release\libkelib.a(ke_event.o)
                              C:/Users/fg7fww/_Install/App/DemoBoards/RSL10/Packages_RSL10_2.0/ONSemiconductor/RSL10/2.0.0//lib/ble_core/release\libkelib.a(ke.o) (ke_event_init)
C:/Users/fg7fww/_Install/App/DemoBoards/RSL10/Packages_RSL10_2.0/ONSemiconductor/RSL10/2.0.0//lib/ble_core/release\libkelib.a(ke_mem.o)
                              C:/Users/fg7fww/_Install/App/DemoBoards/RSL10/Packages_RSL10_2.0/ONSemiconductor/RSL10/2.0.0//lib/ble_core/release\libblelib.a(gattc_task.o) (ke_check_malloc)
C:/Users/fg7fww/_Install/App/DemoBoards/RSL10/Packages_RSL10_2.0/ONSemiconductor/RSL10/2.0.0//lib/ble_core/release\libkelib.a(ke_msg.o)
                              ./code/ble_bass.o (ke_msg_alloc)
C:/Users/fg7fww/_Install/App/DemoBoards/RSL10/Packages_RSL10_2.0/ONSemiconductor/RSL10/2.0.0//lib/ble_core/release\libkelib.a(ke_task.o)
                              C:/Users/fg7fww/_Install/App/DemoBoards/RSL10/Packages_RSL10_2.0/ONSemiconductor/RSL10/2.0.0//lib/ble_core/release\libkelib.a(ke.o) (ke_task_init)
C:/Users/fg7fww/_Install/App/DemoBoards/RSL10/Packages_RSL10_2.0/ONSemiconductor/RSL10/2.0.0//lib/ble_core/release\libkelib.a(ke_timer.o)
                              C:/Users/fg7fww/_Install/App/DemoBoards/RSL10/Packages_RSL10_2.0/ONSemiconductor/RSL10/2.0.0//lib/ble_core/release\libkelib.a(ke.o) (ke_timer_init)
C:/Users/fg7fww/_Install/App/DemoBoards/RSL10/Packages_RSL10_2.0/ONSemiconductor/RSL10/2.0.0//lib/ble_core/release\libkelib.a(rst_grosstime.o)
                              C:/Users/fg7fww/_Install/App/DemoBoards/RSL10/Packages_RSL10_2.0/ONSemiconductor/RSL10/2.0.0//lib/ble_core/release\libblelib.a(gapm_task.o) (platform_reset)
C:/Users/fg7fww/_Install/App/DemoBoards/RSL10/Packages_RSL10_2.0/ONSemiconductor/RSL10/2.0.0//lib/ble_core/release\libkelib.a(rwip2.o)
                              ./code/ble_std.o (Kernel_Init)
C:/Users/fg7fww/_Install/App/DemoBoards/RSL10/Packages_RSL10_2.0/ONSemiconductor/RSL10/2.0.0//lib/ble_core/release\libkelib.a(co_list.o)
                              C:/Users/fg7fww/_Install/App/DemoBoards/RSL10/Packages_RSL10_2.0/ONSemiconductor/RSL10/2.0.0//lib/ble_core/release\libblelib.a(lld_evt.o) (co_list_init)
C:/Users/fg7fww/_Install/App/DemoBoards/RSL10/Packages_RSL10_2.0/ONSemiconductor/RSL10/2.0.0//lib/ble_core/release\libkelib.a(co_utils.o)
                              C:/Users/fg7fww/_Install/App/DemoBoards/RSL10/Packages_RSL10_2.0/ONSemiconductor/RSL10/2.0.0//lib/ble_core/release\libblelib.a(llm.o) (co_bdaddr_compare)
C:/Users/fg7fww/_Install/App/DemoBoards/RSL10/Packages_RSL10_2.0/ONSemiconductor/RSL10/2.0.0//lib/ble_core/release\libkelib.a(ke_queue.o)
                              C:/Users/fg7fww/_Install/App/DemoBoards/RSL10/Packages_RSL10_2.0/ONSemiconductor/RSL10/2.0.0//lib/ble_core/release\libkelib.a(ke_task.o) (ke_queue_extract)
C:/Users/fg7fww/_Install/App/DemoBoards/RSL10/Packages_RSL10_2.0/ONSemiconductor/RSL10/2.0.0//lib/ble_profiles/release\libbass.a(bass.o)
                              C:/Users/fg7fww/_Install/App/DemoBoards/RSL10/Packages_RSL10_2.0/ONSemiconductor/RSL10/2.0.0//lib/ble_core/release\libblelib.a(prf-prf_utils.o) (bass_prf_itf_get)
C:/Users/fg7fww/_Install/App/DemoBoards/RSL10/Packages_RSL10_2.0/ONSemiconductor/RSL10/2.0.0//lib/ble_profiles/release\libbass.a(bass_task.o)
                              C:/Users/fg7fww/_Install/App/DemoBoards/RSL10/Packages_RSL10_2.0/ONSemiconductor/RSL10/2.0.0//lib/ble_profiles/release\libbass.a(bass.o) (bass_default_handler)
C:/Users/fg7fww/_Install/App/DemoBoards/RSL10/Packages_RSL10_2.0/ONSemiconductor/RSL10/2.0.0//lib/release\libcmsis.a(startup_rsl10.o)
                              (Reset_Handler)
C:/Users/fg7fww/_Install/App/DemoBoards/RSL10/Packages_RSL10_2.0/ONSemiconductor/RSL10/2.0.0//lib/release\libcmsis.a(start.o)
                              C:/Users/fg7fww/_Install/App/DemoBoards/RSL10/Packages_RSL10_2.0/ONSemiconductor/RSL10/2.0.0//lib/release\libcmsis.a(startup_rsl10.o) (_start)
C:/Users/fg7fww/_Install/App/DemoBoards/RSL10/Packages_RSL10_2.0/ONSemiconductor/RSL10/2.0.0//lib/release\libcmsis.a(system_rsl10.o)
                              C:/Users/fg7fww/_Install/App/DemoBoards/RSL10/Packages_RSL10_2.0/ONSemiconductor/RSL10/2.0.0//lib/release\libcmsis.a(startup_rsl10.o) (SystemInit)
C:/Users/fg7fww/_Install/App/DemoBoards/RSL10/Packages_RSL10_2.0/ONSemiconductor/RSL10/2.0.0//lib/release\libcmsis.a(sbrk.o)
                              C:/Users/fg7fww/_Install/App/DemoBoards/RSL10/Packages_RSL10_2.0/ONSemiconductor/RSL10/2.0.0//lib/release\libcmsis.a(start.o) (_sbrk)
C:/Users/fg7fww/_Install/App/DemoBoards/RSL10/Packages_RSL10_2.0/ONSemiconductor/RSL10/2.0.0//lib/release\libsyslib.a(rsl10_protocol.o)
                              C:/Users/fg7fww/_Install/App/DemoBoards/RSL10/Packages_RSL10_2.0/ONSemiconductor/RSL10/2.0.0//lib/ble_core/release\libblelib.a(lld_evt.o) (Device_Param_Read)
C:/Users/fg7fww/_Install/App/DemoBoards/RSL10/Packages_RSL10_2.0/ONSemiconductor/RSL10/2.0.0//lib/release\libsyslib.a(rsl10_sys_dma.o)
                              C:/Users/fg7fww/_Install/App/DemoBoards/RSL10/Packages_RSL10_2.0/ONSemiconductor/RSL10/2.0.0//lib/release\libcmsis.a(start.o) (Sys_DMA_ChannelConfig)
C:/Users/fg7fww/_Install/App/DemoBoards/RSL10/Packages_RSL10_2.0/ONSemiconductor/RSL10/2.0.0//lib/release\libsyslib.a(rsl10_sys_power_modes.o)
                              C:/Users/fg7fww/_Install/App/DemoBoards/RSL10/Packages_RSL10_2.0/ONSemiconductor/RSL10/2.0.0//lib/ble_core/release\libblelib.a(lld_sleep.o) (Sys_PowerModes_Sleep)
C:/Users/fg7fww/_Install/App/DemoBoards/RSL10/Packages_RSL10_2.0/ONSemiconductor/RSL10/2.0.0//lib/release\libsyslib.a(rsl10_sys_rffe.o)
                              ./code/app_init.o (Sys_RFFE_SetTXPower)
C:/Users/fg7fww/_Install/App/DemoBoards/RSL10/Packages_RSL10_2.0/ONSemiconductor/RSL10/2.0.0//lib/release\libsyslib.a(rsl10_sys_power.o)
                              C:/Users/fg7fww/_Install/App/DemoBoards/RSL10/Packages_RSL10_2.0/ONSemiconductor/RSL10/2.0.0//lib/release\libsyslib.a(rsl10_sys_rffe.o) (Sys_Power_VDDRFCalibratedConfig)
C:/Users/fg7fww/_Install/App/DemoBoards/RSL10/Packages_RSL10_2.0/ONSemiconductor/RSL10/2.0.0//lib/ble_core/release\libweak_prf.a(weakprf.o)
                              C:/Users/fg7fww/_Install/App/DemoBoards/RSL10/Packages_RSL10_2.0/ONSemiconductor/RSL10/2.0.0//lib/ble_core/release\libblelib.a(prf-prf_utils.o) (htpt_prf_itf_get)
c:/program files (x86)/on semiconductor/rsl10 sdk/arm_tools/bin/../lib/gcc/arm-none-eabi/6.3.1/thumb/v7-m\libgcc.a(_arm_addsubdf3.o)
                              C:/Users/fg7fww/_Install/App/DemoBoards/RSL10/Packages_RSL10_2.0/ONSemiconductor/RSL10/2.0.0//lib/ble_core/release\libblelib.a(rf_atlas.o) (__aeabi_dsub)
c:/program files (x86)/on semiconductor/rsl10 sdk/arm_tools/bin/../lib/gcc/arm-none-eabi/6.3.1/thumb/v7-m\libgcc.a(_arm_muldivdf3.o)
                              C:/Users/fg7fww/_Install/App/DemoBoards/RSL10/Packages_RSL10_2.0/ONSemiconductor/RSL10/2.0.0//lib/ble_core/release\libblelib.a(rf_atlas.o) (__aeabi_dmul)
c:/program files (x86)/on semiconductor/rsl10 sdk/arm_tools/bin/../lib/gcc/arm-none-eabi/6.3.1/thumb/v7-m\libgcc.a(_arm_fixdfsi.o)
                              C:/Users/fg7fww/_Install/App/DemoBoards/RSL10/Packages_RSL10_2.0/ONSemiconductor/RSL10/2.0.0//lib/release\libsyslib.a(rsl10_sys_rffe.o) (__aeabi_d2iz)
c:/program files (x86)/on semiconductor/rsl10 sdk/arm_tools/bin/../lib/gcc/arm-none-eabi/6.3.1/thumb/v7-m\libgcc.a(_arm_fixunsdfsi.o)
                              C:/Users/fg7fww/_Install/App/DemoBoards/RSL10/Packages_RSL10_2.0/ONSemiconductor/RSL10/2.0.0//lib/ble_core/release\libblelib.a(rwip.o) (__aeabi_d2uiz)
c:/program files (x86)/on semiconductor/rsl10 sdk/arm_tools/bin/../lib/gcc/arm-none-eabi/6.3.1/thumb/v7-m\libgcc.a(_arm_truncdfsf2.o)
                              C:/Users/fg7fww/_Install/App/DemoBoards/RSL10/Packages_RSL10_2.0/ONSemiconductor/RSL10/2.0.0//lib/ble_core/release\libblelib.a(rf_atlas.o) (__aeabi_d2f)
c:/program files (x86)/on semiconductor/rsl10 sdk/arm_tools/bin/../lib/gcc/arm-none-eabi/6.3.1/thumb/v7-m\libgcc.a(_arm_muldivsf3.o)
                              C:/Users/fg7fww/_Install/App/DemoBoards/RSL10/Packages_RSL10_2.0/ONSemiconductor/RSL10/2.0.0//lib/ble_core/release\libblelib.a(rwip.o) (__aeabi_fmul)
c:/program files (x86)/on semiconductor/rsl10 sdk/arm_tools/bin/../lib/gcc/arm-none-eabi/6.3.1/thumb/v7-m\libgcc.a(_arm_fixsfsi.o)
                              C:/Users/fg7fww/_Install/App/DemoBoards/RSL10/Packages_RSL10_2.0/ONSemiconductor/RSL10/2.0.0//lib/ble_core/release\libblelib.a(rf_atlas.o) (__aeabi_f2iz)
c:/program files (x86)/on semiconductor/rsl10 sdk/arm_tools/bin/../lib/gcc/arm-none-eabi/6.3.1/../../../../arm-none-eabi/lib/thumb/v7-m\libg_nano.a(lib_a-errno.o)
                              C:/Users/fg7fww/_Install/App/DemoBoards/RSL10/Packages_RSL10_2.0/ONSemiconductor/RSL10/2.0.0//lib/release\libcmsis.a(sbrk.o) (__errno)
c:/program files (x86)/on semiconductor/rsl10 sdk/arm_tools/bin/../lib/gcc/arm-none-eabi/6.3.1/../../../../arm-none-eabi/lib/thumb/v7-m\libg_nano.a(lib_a-impure.o)
                              c:/program files (x86)/on semiconductor/rsl10 sdk/arm_tools/bin/../lib/gcc/arm-none-eabi/6.3.1/../../../../arm-none-eabi/lib/thumb/v7-m\libg_nano.a(lib_a-errno.o) (_impure_ptr)
c:/program files (x86)/on semiconductor/rsl10 sdk/arm_tools/bin/../lib/gcc/arm-none-eabi/6.3.1/../../../../arm-none-eabi/lib/thumb/v7-m\libg_nano.a(lib_a-malloc.o)
                              ./code/ble_std.o (malloc)
c:/program files (x86)/on semiconductor/rsl10 sdk/arm_tools/bin/../lib/gcc/arm-none-eabi/6.3.1/../../../../arm-none-eabi/lib/thumb/v7-m\libg_nano.a(lib_a-memcmp.o)
                              C:/Users/fg7fww/_Install/App/DemoBoards/RSL10/Packages_RSL10_2.0/ONSemiconductor/RSL10/2.0.0//lib/ble_core/release\libblelib.a(llm.o) (memcmp)
c:/program files (x86)/on semiconductor/rsl10 sdk/arm_tools/bin/../lib/gcc/arm-none-eabi/6.3.1/../../../../arm-none-eabi/lib/thumb/v7-m\libg_nano.a(lib_a-memcpy-stub.o)
                              ./code/ble_custom.o (memcpy)
c:/program files (x86)/on semiconductor/rsl10 sdk/arm_tools/bin/../lib/gcc/arm-none-eabi/6.3.1/../../../../arm-none-eabi/lib/thumb/v7-m\libg_nano.a(lib_a-memset.o)
                              ./code/app_init.o (memset)
c:/program files (x86)/on semiconductor/rsl10 sdk/arm_tools/bin/../lib/gcc/arm-none-eabi/6.3.1/../../../../arm-none-eabi/lib/thumb/v7-m\libg_nano.a(lib_a-nano-freer.o)
                              c:/program files (x86)/on semiconductor/rsl10 sdk/arm_tools/bin/../lib/gcc/arm-none-eabi/6.3.1/../../../../arm-none-eabi/lib/thumb/v7-m\libg_nano.a(lib_a-malloc.o) (_free_r)
c:/program files (x86)/on semiconductor/rsl10 sdk/arm_tools/bin/../lib/gcc/arm-none-eabi/6.3.1/../../../../arm-none-eabi/lib/thumb/v7-m\libg_nano.a(lib_a-nano-mallocr.o)
                              c:/program files (x86)/on semiconductor/rsl10 sdk/arm_tools/bin/../lib/gcc/arm-none-eabi/6.3.1/../../../../arm-none-eabi/lib/thumb/v7-m\libg_nano.a(lib_a-malloc.o) (_malloc_r)
c:/program files (x86)/on semiconductor/rsl10 sdk/arm_tools/bin/../lib/gcc/arm-none-eabi/6.3.1/../../../../arm-none-eabi/lib/thumb/v7-m\libg_nano.a(lib_a-rand.o)
                              ./code/ble_std.o (srand)
c:/program files (x86)/on semiconductor/rsl10 sdk/arm_tools/bin/../lib/gcc/arm-none-eabi/6.3.1/../../../../arm-none-eabi/lib/thumb/v7-m\libg_nano.a(lib_a-sbrkr.o)
                              c:/program files (x86)/on semiconductor/rsl10 sdk/arm_tools/bin/../lib/gcc/arm-none-eabi/6.3.1/../../../../arm-none-eabi/lib/thumb/v7-m\libg_nano.a(lib_a-nano-mallocr.o) (_sbrk_r)
c:/program files (x86)/on semiconductor/rsl10 sdk/arm_tools/bin/../lib/gcc/arm-none-eabi/6.3.1/../../../../arm-none-eabi/lib/thumb/v7-m\libg_nano.a(lib_a-mlock.o)
                              c:/program files (x86)/on semiconductor/rsl10 sdk/arm_tools/bin/../lib/gcc/arm-none-eabi/6.3.1/../../../../arm-none-eabi/lib/thumb/v7-m\libg_nano.a(lib_a-nano-freer.o) (__malloc_lock)
c:/program files (x86)/on semiconductor/rsl10 sdk/arm_tools/bin/../lib/gcc/arm-none-eabi/6.3.1/../../../../arm-none-eabi/lib/thumb/v7-m\libg_nano.a(lib_a-reent.o)
                              c:/program files (x86)/on semiconductor/rsl10 sdk/arm_tools/bin/../lib/gcc/arm-none-eabi/6.3.1/../../../../arm-none-eabi/lib/thumb/v7-m\libg_nano.a(lib_a-sbrkr.o) (errno)

Allocating common symbols
Common symbol       size              file

gapc_state          0x4               C:/Users/fg7fww/_Install/App/DemoBoards/RSL10/Packages_RSL10_2.0/ONSemiconductor/RSL10/2.0.0//lib/ble_core/release\libblelib.a(gapc_task.o)
bass_support_env    0x2               ./code/ble_bass.o
ecc_env             0x8               C:/Users/fg7fww/_Install/App/DemoBoards/RSL10/Packages_RSL10_2.0/ONSemiconductor/RSL10/2.0.0//lib/ble_core/release\libblelib.a(ecc_p256.o)
appm_state          0x1               ./code/app_process.o
gapm_state          0x1               C:/Users/fg7fww/_Install/App/DemoBoards/RSL10/Packages_RSL10_2.0/ONSemiconductor/RSL10/2.0.0//lib/ble_core/release\libblelib.a(gapm_task.o)
errno               0x4               c:/program files (x86)/on semiconductor/rsl10 sdk/arm_tools/bin/../lib/gcc/arm-none-eabi/6.3.1/../../../../arm-none-eabi/lib/thumb/v7-m\libg_nano.a(lib_a-reent.o)
l2cc_env            0x10              C:/Users/fg7fww/_Install/App/DemoBoards/RSL10/Packages_RSL10_2.0/ONSemiconductor/RSL10/2.0.0//lib/ble_core/release\libblelib.a(l2cc.o)
llc_env             0x10              C:/Users/fg7fww/_Install/App/DemoBoards/RSL10/Packages_RSL10_2.0/ONSemiconductor/RSL10/2.0.0//lib/ble_core/release\libblelib.a(llc.o)
stat_cnt_enable     0x1               C:/Users/fg7fww/_Install/App/DemoBoards/RSL10/Packages_RSL10_2.0/ONSemiconductor/RSL10/2.0.0//lib/ble_core/release\libblelib.a(lld_pdu.o)
bdaddr              0x6               ./code/ble_std.o
hci_env             0x10              C:/Users/fg7fww/_Install/App/DemoBoards/RSL10/Packages_RSL10_2.0/ONSemiconductor/RSL10/2.0.0//lib/ble_core/release\libblelib.a(hci.o)
rwip_heap_msg       0xa98             C:/Users/fg7fww/_Install/App/DemoBoards/RSL10/Packages_RSL10_2.0/ONSemiconductor/RSL10/2.0.0//lib/ble_core/release\libkelib.a(rwip2.o)
stat_cnt_value      0x2c              C:/Users/fg7fww/_Install/App/DemoBoards/RSL10/Packages_RSL10_2.0/ONSemiconductor/RSL10/2.0.0//lib/ble_core/release\libblelib.a(lld_pdu.o)
stat_cnt_conidx     0x1               C:/Users/fg7fww/_Install/App/DemoBoards/RSL10/Packages_RSL10_2.0/ONSemiconductor/RSL10/2.0.0//lib/ble_core/release\libblelib.a(lld_pdu.o)
gattm_state         0x1               C:/Users/fg7fww/_Install/App/DemoBoards/RSL10/Packages_RSL10_2.0/ONSemiconductor/RSL10/2.0.0//lib/ble_core/release\libblelib.a(gattm_task.o)
lld_sleep_params    0x2               C:/Users/fg7fww/_Install/App/DemoBoards/RSL10/Packages_RSL10_2.0/ONSemiconductor/RSL10/2.0.0//lib/ble_core/release\libblelib.a(lld_sleep.o)
gapc_env            0x10              C:/Users/fg7fww/_Install/App/DemoBoards/RSL10/Packages_RSL10_2.0/ONSemiconductor/RSL10/2.0.0//lib/ble_core/release\libblelib.a(gapc.o)
lld_evt_env         0x2c              C:/Users/fg7fww/_Install/App/DemoBoards/RSL10/Packages_RSL10_2.0/ONSemiconductor/RSL10/2.0.0//lib/ble_core/release\libblelib.a(lld_evt.o)
bdaddr_type         0x1               ./code/ble_std.o
rwip_env            0x10              C:/Users/fg7fww/_Install/App/DemoBoards/RSL10/Packages_RSL10_2.0/ONSemiconductor/RSL10/2.0.0//lib/ble_core/release\libkelib.a(rwip2.o)
llm_state           0x1               C:/Users/fg7fww/_Install/App/DemoBoards/RSL10/Packages_RSL10_2.0/ONSemiconductor/RSL10/2.0.0//lib/ble_core/release\libblelib.a(llm_task.o)
ke_env              0x30              C:/Users/fg7fww/_Install/App/DemoBoards/RSL10/Packages_RSL10_2.0/ONSemiconductor/RSL10/2.0.0//lib/ble_core/release\libkelib.a(ke.o)
cs_env              0x8e              ./code/ble_custom.o
gattc_state         0x4               C:/Users/fg7fww/_Install/App/DemoBoards/RSL10/Packages_RSL10_2.0/ONSemiconductor/RSL10/2.0.0//lib/ble_core/release\libblelib.a(gattc_task.o)
rwip_heap_env       0xa90             C:/Users/fg7fww/_Install/App/DemoBoards/RSL10/Packages_RSL10_2.0/ONSemiconductor/RSL10/2.0.0//lib/ble_core/release\libkelib.a(rwip2.o)
l2cc_state          0x4               C:/Users/fg7fww/_Install/App/DemoBoards/RSL10/Packages_RSL10_2.0/ONSemiconductor/RSL10/2.0.0//lib/ble_core/release\libblelib.a(l2cc_task.o)
llm_le_env          0xc8              C:/Users/fg7fww/_Install/App/DemoBoards/RSL10/Packages_RSL10_2.0/ONSemiconductor/RSL10/2.0.0//lib/ble_core/release\libblelib.a(llm.o)
ble_env             0x10              ./code/ble_std.o
hci_fc_env          0xa               C:/Users/fg7fww/_Install/App/DemoBoards/RSL10/Packages_RSL10_2.0/ONSemiconductor/RSL10/2.0.0//lib/ble_core/release\libblelib.a(hci_fc.o)
app_env             0x84              ./code/app_init.o
spi_if              0x1c              ./code/spi_interface.o
prf_env             0x390             C:/Users/fg7fww/_Install/App/DemoBoards/RSL10/Packages_RSL10_2.0/ONSemiconductor/RSL10/2.0.0//lib/ble_core/release\libblelib.a(prf-prf_utils.o)
l2cm_env            0xc               C:/Users/fg7fww/_Install/App/DemoBoards/RSL10/Packages_RSL10_2.0/ONSemiconductor/RSL10/2.0.0//lib/ble_core/release\libblelib.a(l2cm.o)
gattc_env           0x10              C:/Users/fg7fww/_Install/App/DemoBoards/RSL10/Packages_RSL10_2.0/ONSemiconductor/RSL10/2.0.0//lib/ble_core/release\libblelib.a(gattc.o)
rwip_rf             0x34              C:/Users/fg7fww/_Install/App/DemoBoards/RSL10/Packages_RSL10_2.0/ONSemiconductor/RSL10/2.0.0//lib/ble_core/release\libblelib.a(rwip.o)
em_buf_env          0x46c             C:/Users/fg7fww/_Install/App/DemoBoards/RSL10/Packages_RSL10_2.0/ONSemiconductor/RSL10/2.0.0//lib/ble_core/release\libblelib.a(em_buf.o)
rwip_heap_db        0x130c            C:/Users/fg7fww/_Install/App/DemoBoards/RSL10/Packages_RSL10_2.0/ONSemiconductor/RSL10/2.0.0//lib/ble_core/release\libkelib.a(rwip2.o)
llc_state           0x4               C:/Users/fg7fww/_Install/App/DemoBoards/RSL10/Packages_RSL10_2.0/ONSemiconductor/RSL10/2.0.0//lib/ble_core/release\libblelib.a(llc_task.o)
gapm_env            0x7c              C:/Users/fg7fww/_Install/App/DemoBoards/RSL10/Packages_RSL10_2.0/ONSemiconductor/RSL10/2.0.0//lib/ble_core/release\libblelib.a(gapm.o)
rwip_heap_non_ret   0x10c             C:/Users/fg7fww/_Install/App/DemoBoards/RSL10/Packages_RSL10_2.0/ONSemiconductor/RSL10/2.0.0//lib/ble_core/release\libkelib.a(rwip2.o)
gattm_env           0x20              C:/Users/fg7fww/_Install/App/DemoBoards/RSL10/Packages_RSL10_2.0/ONSemiconductor/RSL10/2.0.0//lib/ble_core/release\libblelib.a(gattm.o)

Discarded input sections

 .text          0x00000000        0x0 ./code/app_init.o
 .data          0x00000000        0x0 ./code/app_init.o
 .bss           0x00000000        0x0 ./code/app_init.o
 .text          0x00000000        0x0 ./code/app_process.o
 .data          0x00000000        0x0 ./code/app_process.o
 .bss           0x00000000        0x0 ./code/app_process.o
 .text          0x00000000        0x0 ./code/ble_bass.o
 .data          0x00000000        0x0 ./code/ble_bass.o
 .bss           0x00000000        0x0 ./code/ble_bass.o
 .text          0x00000000        0x0 ./code/ble_custom.o
 .data          0x00000000        0x0 ./code/ble_custom.o
 .bss           0x00000000        0x0 ./code/ble_custom.o
 .text          0x00000000        0x0 ./code/ble_std.o
 .data          0x00000000        0x0 ./code/ble_std.o
 .bss           0x00000000        0x0 ./code/ble_std.o
 .text          0x00000000        0x0 ./code/spi_interface.o
 .data          0x00000000        0x0 ./code/spi_interface.o
 .bss           0x00000000        0x0 ./code/spi_interface.o
 .text          0x00000000        0x0 ./app.o
 .data          0x00000000        0x0 ./app.o
 .bss           0x00000000        0x0 ./app.o
 .text          0x00000000        0x0 C:/Users/fg7fww/_Install/App/DemoBoards/RSL10/Packages_RSL10_2.0/ONSemiconductor/RSL10/2.0.0//lib/ble_core/release\libblelib.a(rwip.o)
 .data          0x00000000        0x0 C:/Users/fg7fww/_Install/App/DemoBoards/RSL10/Packages_RSL10_2.0/ONSemiconductor/RSL10/2.0.0//lib/ble_core/release\libblelib.a(rwip.o)
 .bss           0x00000000        0x0 C:/Users/fg7fww/_Install/App/DemoBoards/RSL10/Packages_RSL10_2.0/ONSemiconductor/RSL10/2.0.0//lib/ble_core/release\libblelib.a(rwip.o)
 .text.LowPowerClock_Source_Set
                0x00000000       0x10 C:/Users/fg7fww/_Install/App/DemoBoards/RSL10/Packages_RSL10_2.0/ONSemiconductor/RSL10/2.0.0//lib/ble_core/release\libblelib.a(rwip.o)
 .text.rwip_check_wakeup_boundary
                0x00000000       0x28 C:/Users/fg7fww/_Install/App/DemoBoards/RSL10/Packages_RSL10_2.0/ONSemiconductor/RSL10/2.0.0//lib/ble_core/release\libblelib.a(rwip.o)
 .text.BLE_Init
                0x00000000       0x3c C:/Users/fg7fww/_Install/App/DemoBoards/RSL10/Packages_RSL10_2.0/ONSemiconductor/RSL10/2.0.0//lib/ble_core/release\libblelib.a(rwip.o)
 .text.rwip_version
                0x00000000        0x4 C:/Users/fg7fww/_Install/App/DemoBoards/RSL10/Packages_RSL10_2.0/ONSemiconductor/RSL10/2.0.0//lib/ble_core/release\libblelib.a(rwip.o)
 .text.BLE_Power_Mode_Enter
                0x00000000      0x138 C:/Users/fg7fww/_Install/App/DemoBoards/RSL10/Packages_RSL10_2.0/ONSemiconductor/RSL10/2.0.0//lib/ble_core/release\libblelib.a(rwip.o)
 .text.rwip_sleep_enable
                0x00000000        0xc C:/Users/fg7fww/_Install/App/DemoBoards/RSL10/Packages_RSL10_2.0/ONSemiconductor/RSL10/2.0.0//lib/ble_core/release\libblelib.a(rwip.o)
 .text.rwip_ext_wakeup_enable
                0x00000000        0xc C:/Users/fg7fww/_Install/App/DemoBoards/RSL10/Packages_RSL10_2.0/ONSemiconductor/RSL10/2.0.0//lib/ble_core/release\libblelib.a(rwip.o)
 .text.RTCCLK_Period_Value_Set
                0x00000000       0x38 C:/Users/fg7fww/_Install/App/DemoBoards/RSL10/Packages_RSL10_2.0/ONSemiconductor/RSL10/2.0.0//lib/ble_core/release\libblelib.a(rwip.o)
 .text.rwip_wlcoex_set
                0x00000000        0x4 C:/Users/fg7fww/_Install/App/DemoBoards/RSL10/Packages_RSL10_2.0/ONSemiconductor/RSL10/2.0.0//lib/ble_core/release\libblelib.a(rwip.o)
 .text.SecurityKeys_Read
                0x00000000       0x48 C:/Users/fg7fww/_Install/App/DemoBoards/RSL10/Packages_RSL10_2.0/ONSemiconductor/RSL10/2.0.0//lib/ble_core/release\libblelib.a(rwip.o)
 .bss.sleep_duration_reduction_slot
                0x00000000        0x2 C:/Users/fg7fww/_Install/App/DemoBoards/RSL10/Packages_RSL10_2.0/ONSemiconductor/RSL10/2.0.0//lib/ble_core/release\libblelib.a(rwip.o)
 .text          0x00000000        0x0 C:/Users/fg7fww/_Install/App/DemoBoards/RSL10/Packages_RSL10_2.0/ONSemiconductor/RSL10/2.0.0//lib/ble_core/release\libblelib.a(rwble.o)
 .data          0x00000000        0x0 C:/Users/fg7fww/_Install/App/DemoBoards/RSL10/Packages_RSL10_2.0/ONSemiconductor/RSL10/2.0.0//lib/ble_core/release\libblelib.a(rwble.o)
 .bss           0x00000000        0x0 C:/Users/fg7fww/_Install/App/DemoBoards/RSL10/Packages_RSL10_2.0/ONSemiconductor/RSL10/2.0.0//lib/ble_core/release\libblelib.a(rwble.o)
 .text.rwble_sleep_check
                0x00000000       0x10 C:/Users/fg7fww/_Install/App/DemoBoards/RSL10/Packages_RSL10_2.0/ONSemiconductor/RSL10/2.0.0//lib/ble_core/release\libblelib.a(rwble.o)
 .text.rwble_activity_ongoing_check
                0x00000000       0x1c C:/Users/fg7fww/_Install/App/DemoBoards/RSL10/Packages_RSL10_2.0/ONSemiconductor/RSL10/2.0.0//lib/ble_core/release\libblelib.a(rwble.o)
 .text.rwble_version
                0x00000000       0x30 C:/Users/fg7fww/_Install/App/DemoBoards/RSL10/Packages_RSL10_2.0/ONSemiconductor/RSL10/2.0.0//lib/ble_core/release\libblelib.a(rwble.o)
 .text          0x00000000        0x0 C:/Users/fg7fww/_Install/App/DemoBoards/RSL10/Packages_RSL10_2.0/ONSemiconductor/RSL10/2.0.0//lib/ble_core/release\libblelib.a(rf_atlas.o)
 .data          0x00000000        0x0 C:/Users/fg7fww/_Install/App/DemoBoards/RSL10/Packages_RSL10_2.0/ONSemiconductor/RSL10/2.0.0//lib/ble_core/release\libblelib.a(rf_atlas.o)
 .bss           0x00000000        0x0 C:/Users/fg7fww/_Install/App/DemoBoards/RSL10/Packages_RSL10_2.0/ONSemiconductor/RSL10/2.0.0//lib/ble_core/release\libblelib.a(rf_atlas.o)
 .text          0x00000000        0x0 C:/Users/fg7fww/_Install/App/DemoBoards/RSL10/Packages_RSL10_2.0/ONSemiconductor/RSL10/2.0.0//lib/ble_core/release\libblelib.a(prf-prf_utils.o)
 .data          0x00000000        0x0 C:/Users/fg7fww/_Install/App/DemoBoards/RSL10/Packages_RSL10_2.0/ONSemiconductor/RSL10/2.0.0//lib/ble_core/release\libblelib.a(prf-prf_utils.o)
 .bss           0x00000000        0x0 C:/Users/fg7fww/_Install/App/DemoBoards/RSL10/Packages_RSL10_2.0/ONSemiconductor/RSL10/2.0.0//lib/ble_core/release\libblelib.a(prf-prf_utils.o)
 .text.prf_get_id_from_task
                0x00000000       0x2c C:/Users/fg7fww/_Install/App/DemoBoards/RSL10/Packages_RSL10_2.0/ONSemiconductor/RSL10/2.0.0//lib/ble_core/release\libblelib.a(prf-prf_utils.o)
 .text.prf_get_task_from_id
                0x00000000       0x2c C:/Users/fg7fww/_Install/App/DemoBoards/RSL10/Packages_RSL10_2.0/ONSemiconductor/RSL10/2.0.0//lib/ble_core/release\libblelib.a(prf-prf_utils.o)
 .text.prf_unpack_char_pres_fmt
                0x00000000       0x22 C:/Users/fg7fww/_Install/App/DemoBoards/RSL10/Packages_RSL10_2.0/ONSemiconductor/RSL10/2.0.0//lib/ble_core/release\libblelib.a(prf-prf_utils.o)
 .text.prf_read_char_send
                0x00000000       0x34 C:/Users/fg7fww/_Install/App/DemoBoards/RSL10/Packages_RSL10_2.0/ONSemiconductor/RSL10/2.0.0//lib/ble_core/release\libblelib.a(prf-prf_utils.o)
 .text.prf_register_atthdl2gatt
                0x00000000       0x34 C:/Users/fg7fww/_Install/App/DemoBoards/RSL10/Packages_RSL10_2.0/ONSemiconductor/RSL10/2.0.0//lib/ble_core/release\libblelib.a(prf-prf_utils.o)
 .text.prf_unregister_atthdl2gatt
                0x00000000       0x34 C:/Users/fg7fww/_Install/App/DemoBoards/RSL10/Packages_RSL10_2.0/ONSemiconductor/RSL10/2.0.0//lib/ble_core/release\libblelib.a(prf-prf_utils.o)
 .text.prf_disc_svc_send
                0x00000000       0x3a C:/Users/fg7fww/_Install/App/DemoBoards/RSL10/Packages_RSL10_2.0/ONSemiconductor/RSL10/2.0.0//lib/ble_core/release\libblelib.a(prf-prf_utils.o)
 .text.prf_gatt_write
                0x00000000       0x58 C:/Users/fg7fww/_Install/App/DemoBoards/RSL10/Packages_RSL10_2.0/ONSemiconductor/RSL10/2.0.0//lib/ble_core/release\libblelib.a(prf-prf_utils.o)
 .text.prf_gatt_write_ntf_ind
                0x00000000       0x22 C:/Users/fg7fww/_Install/App/DemoBoards/RSL10/Packages_RSL10_2.0/ONSemiconductor/RSL10/2.0.0//lib/ble_core/release\libblelib.a(prf-prf_utils.o)
 .text.prf_check_svc_char_validity
                0x00000000       0x2e C:/Users/fg7fww/_Install/App/DemoBoards/RSL10/Packages_RSL10_2.0/ONSemiconductor/RSL10/2.0.0//lib/ble_core/release\libblelib.a(prf-prf_utils.o)
 .text.prf_check_svc_char_uuid128_validity
                0x00000000       0x30 C:/Users/fg7fww/_Install/App/DemoBoards/RSL10/Packages_RSL10_2.0/ONSemiconductor/RSL10/2.0.0//lib/ble_core/release\libblelib.a(prf-prf_utils.o)
 .text.prf_check_svc_char_desc_validity
                0x00000000       0x30 C:/Users/fg7fww/_Install/App/DemoBoards/RSL10/Packages_RSL10_2.0/ONSemiconductor/RSL10/2.0.0//lib/ble_core/release\libblelib.a(prf-prf_utils.o)
 .text.prf_check_svc_char_desc_uuid128_validity
                0x00000000       0x32 C:/Users/fg7fww/_Install/App/DemoBoards/RSL10/Packages_RSL10_2.0/ONSemiconductor/RSL10/2.0.0//lib/ble_core/release\libblelib.a(prf-prf_utils.o)
 .text.prf_extract_svc_info
                0x00000000      0x132 C:/Users/fg7fww/_Install/App/DemoBoards/RSL10/Packages_RSL10_2.0/ONSemiconductor/RSL10/2.0.0//lib/ble_core/release\libblelib.a(prf-prf_utils.o)
 .text.prf_extract_svc_uuid128_info
                0x00000000      0x144 C:/Users/fg7fww/_Install/App/DemoBoards/RSL10/Packages_RSL10_2.0/ONSemiconductor/RSL10/2.0.0//lib/ble_core/release\libblelib.a(prf-prf_utils.o)
 .text.prf_client_att_info_rsp
                0x00000000       0x5c C:/Users/fg7fww/_Install/App/DemoBoards/RSL10/Packages_RSL10_2.0/ONSemiconductor/RSL10/2.0.0//lib/ble_core/release\libblelib.a(prf-prf_utils.o)
 .text.prf_pack_date_time
                0x00000000       0x20 C:/Users/fg7fww/_Install/App/DemoBoards/RSL10/Packages_RSL10_2.0/ONSemiconductor/RSL10/2.0.0//lib/ble_core/release\libblelib.a(prf-prf_utils.o)
 .text.prf_unpack_date_time
                0x00000000       0x22 C:/Users/fg7fww/_Install/App/DemoBoards/RSL10/Packages_RSL10_2.0/ONSemiconductor/RSL10/2.0.0//lib/ble_core/release\libblelib.a(prf-prf_utils.o)
 .text          0x00000000        0x0 C:/Users/fg7fww/_Install/App/DemoBoards/RSL10/Packages_RSL10_2.0/ONSemiconductor/RSL10/2.0.0//lib/ble_core/release\libblelib.a(lld_evt.o)
 .data          0x00000000        0x0 C:/Users/fg7fww/_Install/App/DemoBoards/RSL10/Packages_RSL10_2.0/ONSemiconductor/RSL10/2.0.0//lib/ble_core/release\libblelib.a(lld_evt.o)
 .bss           0x00000000        0x0 C:/Users/fg7fww/_Install/App/DemoBoards/RSL10/Packages_RSL10_2.0/ONSemiconductor/RSL10/2.0.0//lib/ble_core/release\libblelib.a(lld_evt.o)
 .text          0x00000000        0x0 C:/Users/fg7fww/_Install/App/DemoBoards/RSL10/Packages_RSL10_2.0/ONSemiconductor/RSL10/2.0.0//lib/ble_core/release\libblelib.a(lld_sleep.o)
 .data          0x00000000        0x0 C:/Users/fg7fww/_Install/App/DemoBoards/RSL10/Packages_RSL10_2.0/ONSemiconductor/RSL10/2.0.0//lib/ble_core/release\libblelib.a(lld_sleep.o)
 .bss           0x00000000        0x0 C:/Users/fg7fww/_Install/App/DemoBoards/RSL10/Packages_RSL10_2.0/ONSemiconductor/RSL10/2.0.0//lib/ble_core/release\libblelib.a(lld_sleep.o)
 .text.BLE_LLD_Sleep_Params_Set
                0x00000000        0xc C:/Users/fg7fww/_Install/App/DemoBoards/RSL10/Packages_RSL10_2.0/ONSemiconductor/RSL10/2.0.0//lib/ble_core/release\libblelib.a(lld_sleep.o)
 .text.BLE_Is_Awake_Flag_Set
                0x00000000        0xc C:/Users/fg7fww/_Install/App/DemoBoards/RSL10/Packages_RSL10_2.0/ONSemiconductor/RSL10/2.0.0//lib/ble_core/release\libblelib.a(lld_sleep.o)
 .text.BLE_Is_Awake_Flag_Clear
                0x00000000        0xc C:/Users/fg7fww/_Install/App/DemoBoards/RSL10/Packages_RSL10_2.0/ONSemiconductor/RSL10/2.0.0//lib/ble_core/release\libblelib.a(lld_sleep.o)
 .text.BLE_Is_Awake
                0x00000000        0xc C:/Users/fg7fww/_Install/App/DemoBoards/RSL10/Packages_RSL10_2.0/ONSemiconductor/RSL10/2.0.0//lib/ble_core/release\libblelib.a(lld_sleep.o)
 .text.lld_power_mode_enter
                0x00000000       0x80 C:/Users/fg7fww/_Install/App/DemoBoards/RSL10/Packages_RSL10_2.0/ONSemiconductor/RSL10/2.0.0//lib/ble_core/release\libblelib.a(lld_sleep.o)
 .text          0x00000000        0x0 C:/Users/fg7fww/_Install/App/DemoBoards/RSL10/Packages_RSL10_2.0/ONSemiconductor/RSL10/2.0.0//lib/ble_core/release\libblelib.a(hci.o)
 .data          0x00000000        0x0 C:/Users/fg7fww/_Install/App/DemoBoards/RSL10/Packages_RSL10_2.0/ONSemiconductor/RSL10/2.0.0//lib/ble_core/release\libblelib.a(hci.o)
 .bss           0x00000000        0x0 C:/Users/fg7fww/_Install/App/DemoBoards/RSL10/Packages_RSL10_2.0/ONSemiconductor/RSL10/2.0.0//lib/ble_core/release\libblelib.a(hci.o)
 .text          0x00000000        0x0 C:/Users/fg7fww/_Install/App/DemoBoards/RSL10/Packages_RSL10_2.0/ONSemiconductor/RSL10/2.0.0//lib/ble_core/release\libblelib.a(hci_fc.o)
 .data          0x00000000        0x0 C:/Users/fg7fww/_Install/App/DemoBoards/RSL10/Packages_RSL10_2.0/ONSemiconductor/RSL10/2.0.0//lib/ble_core/release\libblelib.a(hci_fc.o)
 .bss           0x00000000        0x0 C:/Users/fg7fww/_Install/App/DemoBoards/RSL10/Packages_RSL10_2.0/ONSemiconductor/RSL10/2.0.0//lib/ble_core/release\libblelib.a(hci_fc.o)
 .text.hci_fc_acl_packet_sent
                0x00000000       0x14 C:/Users/fg7fww/_Install/App/DemoBoards/RSL10/Packages_RSL10_2.0/ONSemiconductor/RSL10/2.0.0//lib/ble_core/release\libblelib.a(hci_fc.o)
 .text.hci_fc_check_host_available_nb_acl_packets
                0x00000000       0x24 C:/Users/fg7fww/_Install/App/DemoBoards/RSL10/Packages_RSL10_2.0/ONSemiconductor/RSL10/2.0.0//lib/ble_core/release\libblelib.a(hci_fc.o)
 .text          0x00000000        0x0 C:/Users/fg7fww/_Install/App/DemoBoards/RSL10/Packages_RSL10_2.0/ONSemiconductor/RSL10/2.0.0//lib/ble_core/release\libblelib.a(hci_msg.o)
 .data          0x00000000        0x0 C:/Users/fg7fww/_Install/App/DemoBoards/RSL10/Packages_RSL10_2.0/ONSemiconductor/RSL10/2.0.0//lib/ble_core/release\libblelib.a(hci_msg.o)
 .bss           0x00000000        0x0 C:/Users/fg7fww/_Install/App/DemoBoards/RSL10/Packages_RSL10_2.0/ONSemiconductor/RSL10/2.0.0//lib/ble_core/release\libblelib.a(hci_msg.o)
 .text          0x00000000        0x0 C:/Users/fg7fww/_Install/App/DemoBoards/RSL10/Packages_RSL10_2.0/ONSemiconductor/RSL10/2.0.0//lib/ble_core/release\libblelib.a(llm.o)
 .data          0x00000000        0x0 C:/Users/fg7fww/_Install/App/DemoBoards/RSL10/Packages_RSL10_2.0/ONSemiconductor/RSL10/2.0.0//lib/ble_core/release\libblelib.a(llm.o)
 .bss           0x00000000        0x0 C:/Users/fg7fww/_Install/App/DemoBoards/RSL10/Packages_RSL10_2.0/ONSemiconductor/RSL10/2.0.0//lib/ble_core/release\libblelib.a(llm.o)
 .text          0x00000000        0x0 C:/Users/fg7fww/_Install/App/DemoBoards/RSL10/Packages_RSL10_2.0/ONSemiconductor/RSL10/2.0.0//lib/ble_core/release\libblelib.a(llm_task.o)
 .data          0x00000000        0x0 C:/Users/fg7fww/_Install/App/DemoBoards/RSL10/Packages_RSL10_2.0/ONSemiconductor/RSL10/2.0.0//lib/ble_core/release\libblelib.a(llm_task.o)
 .bss           0x00000000        0x0 C:/Users/fg7fww/_Install/App/DemoBoards/RSL10/Packages_RSL10_2.0/ONSemiconductor/RSL10/2.0.0//lib/ble_core/release\libblelib.a(llm_task.o)
 .text          0x00000000        0x0 C:/Users/fg7fww/_Install/App/DemoBoards/RSL10/Packages_RSL10_2.0/ONSemiconductor/RSL10/2.0.0//lib/ble_core/release\libblelib.a(llm_util.o)
 .data          0x00000000        0x0 C:/Users/fg7fww/_Install/App/DemoBoards/RSL10/Packages_RSL10_2.0/ONSemiconductor/RSL10/2.0.0//lib/ble_core/release\libblelib.a(llm_util.o)
 .bss           0x00000000        0x0 C:/Users/fg7fww/_Install/App/DemoBoards/RSL10/Packages_RSL10_2.0/ONSemiconductor/RSL10/2.0.0//lib/ble_core/release\libblelib.a(llm_util.o)
 .text.llm_util_set_public_addr
                0x00000000       0x10 C:/Users/fg7fww/_Install/App/DemoBoards/RSL10/Packages_RSL10_2.0/ONSemiconductor/RSL10/2.0.0//lib/ble_core/release\libblelib.a(llm_util.o)
 .text          0x00000000        0x0 C:/Users/fg7fww/_Install/App/DemoBoards/RSL10/Packages_RSL10_2.0/ONSemiconductor/RSL10/2.0.0//lib/ble_core/release\libblelib.a(lld.o)
 .data          0x00000000        0x0 C:/Users/fg7fww/_Install/App/DemoBoards/RSL10/Packages_RSL10_2.0/ONSemiconductor/RSL10/2.0.0//lib/ble_core/release\libblelib.a(lld.o)
 .bss           0x00000000        0x0 C:/Users/fg7fww/_Install/App/DemoBoards/RSL10/Packages_RSL10_2.0/ONSemiconductor/RSL10/2.0.0//lib/ble_core/release\libblelib.a(lld.o)
 .text          0x00000000        0x0 C:/Users/fg7fww/_Install/App/DemoBoards/RSL10/Packages_RSL10_2.0/ONSemiconductor/RSL10/2.0.0//lib/ble_core/release\libblelib.a(lld_pdu.o)
 .data          0x00000000        0x0 C:/Users/fg7fww/_Install/App/DemoBoards/RSL10/Packages_RSL10_2.0/ONSemiconductor/RSL10/2.0.0//lib/ble_core/release\libblelib.a(lld_pdu.o)
 .bss           0x00000000        0x0 C:/Users/fg7fww/_Install/App/DemoBoards/RSL10/Packages_RSL10_2.0/ONSemiconductor/RSL10/2.0.0//lib/ble_core/release\libblelib.a(lld_pdu.o)
 .text          0x00000000        0x0 C:/Users/fg7fww/_Install/App/DemoBoards/RSL10/Packages_RSL10_2.0/ONSemiconductor/RSL10/2.0.0//lib/ble_core/release\libblelib.a(lld_util.o)
 .data          0x00000000        0x0 C:/Users/fg7fww/_Install/App/DemoBoards/RSL10/Packages_RSL10_2.0/ONSemiconductor/RSL10/2.0.0//lib/ble_core/release\libblelib.a(lld_util.o)
 .bss           0x00000000        0x0 C:/Users/fg7fww/_Install/App/DemoBoards/RSL10/Packages_RSL10_2.0/ONSemiconductor/RSL10/2.0.0//lib/ble_core/release\libblelib.a(lld_util.o)
 .text.lld_util_get_bd_address
                0x00000000       0x28 C:/Users/fg7fww/_Install/App/DemoBoards/RSL10/Packages_RSL10_2.0/ONSemiconductor/RSL10/2.0.0//lib/ble_core/release\libblelib.a(lld_util.o)
 .text.lld_util_elt_programmed
                0x00000000       0x1a C:/Users/fg7fww/_Install/App/DemoBoards/RSL10/Packages_RSL10_2.0/ONSemiconductor/RSL10/2.0.0//lib/ble_core/release\libblelib.a(lld_util.o)
 .text.lld_util_priority_update
                0x00000000        0x8 C:/Users/fg7fww/_Install/App/DemoBoards/RSL10/Packages_RSL10_2.0/ONSemiconductor/RSL10/2.0.0//lib/ble_core/release\libblelib.a(lld_util.o)
 .text          0x00000000        0x0 C:/Users/fg7fww/_Install/App/DemoBoards/RSL10/Packages_RSL10_2.0/ONSemiconductor/RSL10/2.0.0//lib/ble_core/release\libblelib.a(lld_wlcoex.o)
 .data          0x00000000        0x0 C:/Users/fg7fww/_Install/App/DemoBoards/RSL10/Packages_RSL10_2.0/ONSemiconductor/RSL10/2.0.0//lib/ble_core/release\libblelib.a(lld_wlcoex.o)
 .bss           0x00000000        0x0 C:/Users/fg7fww/_Install/App/DemoBoards/RSL10/Packages_RSL10_2.0/ONSemiconductor/RSL10/2.0.0//lib/ble_core/release\libblelib.a(lld_wlcoex.o)
 .text          0x00000000        0x0 C:/Users/fg7fww/_Install/App/DemoBoards/RSL10/Packages_RSL10_2.0/ONSemiconductor/RSL10/2.0.0//lib/ble_core/release\libblelib.a(llc.o)
 .data          0x00000000        0x0 C:/Users/fg7fww/_Install/App/DemoBoards/RSL10/Packages_RSL10_2.0/ONSemiconductor/RSL10/2.0.0//lib/ble_core/release\libblelib.a(llc.o)
 .bss           0x00000000        0x0 C:/Users/fg7fww/_Install/App/DemoBoards/RSL10/Packages_RSL10_2.0/ONSemiconductor/RSL10/2.0.0//lib/ble_core/release\libblelib.a(llc.o)
 .text          0x00000000        0x0 C:/Users/fg7fww/_Install/App/DemoBoards/RSL10/Packages_RSL10_2.0/ONSemiconductor/RSL10/2.0.0//lib/ble_core/release\libblelib.a(llc_llcp.o)
 .data          0x00000000        0x0 C:/Users/fg7fww/_Install/App/DemoBoards/RSL10/Packages_RSL10_2.0/ONSemiconductor/RSL10/2.0.0//lib/ble_core/release\libblelib.a(llc_llcp.o)
 .bss           0x00000000        0x0 C:/Users/fg7fww/_Install/App/DemoBoards/RSL10/Packages_RSL10_2.0/ONSemiconductor/RSL10/2.0.0//lib/ble_core/release\libblelib.a(llc_llcp.o)
 .text          0x00000000        0x0 C:/Users/fg7fww/_Install/App/DemoBoards/RSL10/Packages_RSL10_2.0/ONSemiconductor/RSL10/2.0.0//lib/ble_core/release\libblelib.a(llc_task.o)
 .data          0x00000000        0x0 C:/Users/fg7fww/_Install/App/DemoBoards/RSL10/Packages_RSL10_2.0/ONSemiconductor/RSL10/2.0.0//lib/ble_core/release\libblelib.a(llc_task.o)
 .bss           0x00000000        0x0 C:/Users/fg7fww/_Install/App/DemoBoards/RSL10/Packages_RSL10_2.0/ONSemiconductor/RSL10/2.0.0//lib/ble_core/release\libblelib.a(llc_task.o)
 .text          0x00000000        0x0 C:/Users/fg7fww/_Install/App/DemoBoards/RSL10/Packages_RSL10_2.0/ONSemiconductor/RSL10/2.0.0//lib/ble_core/release\libblelib.a(llc_util.o)
 .data          0x00000000        0x0 C:/Users/fg7fww/_Install/App/DemoBoards/RSL10/Packages_RSL10_2.0/ONSemiconductor/RSL10/2.0.0//lib/ble_core/release\libblelib.a(llc_util.o)
 .bss           0x00000000        0x0 C:/Users/fg7fww/_Install/App/DemoBoards/RSL10/Packages_RSL10_2.0/ONSemiconductor/RSL10/2.0.0//lib/ble_core/release\libblelib.a(llc_util.o)
 .text.llc_util_set_llcp_discard_enable
                0x00000000       0x20 C:/Users/fg7fww/_Install/App/DemoBoards/RSL10/Packages_RSL10_2.0/ONSemiconductor/RSL10/2.0.0//lib/ble_core/release\libblelib.a(llc_util.o)
 .text          0x00000000        0x0 C:/Users/fg7fww/_Install/App/DemoBoards/RSL10/Packages_RSL10_2.0/ONSemiconductor/RSL10/2.0.0//lib/ble_core/release\libblelib.a(em_buf.o)
 .data          0x00000000        0x0 C:/Users/fg7fww/_Install/App/DemoBoards/RSL10/Packages_RSL10_2.0/ONSemiconductor/RSL10/2.0.0//lib/ble_core/release\libblelib.a(em_buf.o)
 .bss           0x00000000        0x0 C:/Users/fg7fww/_Install/App/DemoBoards/RSL10/Packages_RSL10_2.0/ONSemiconductor/RSL10/2.0.0//lib/ble_core/release\libblelib.a(em_buf.o)
 .text.em_buf_tx_buff_addr_get
                0x00000000        0xc C:/Users/fg7fww/_Install/App/DemoBoards/RSL10/Packages_RSL10_2.0/ONSemiconductor/RSL10/2.0.0//lib/ble_core/release\libblelib.a(em_buf.o)
 .text          0x00000000        0x0 C:/Users/fg7fww/_Install/App/DemoBoards/RSL10/Packages_RSL10_2.0/ONSemiconductor/RSL10/2.0.0//lib/ble_core/release\libblelib.a(rwble_hl.o)
 .data          0x00000000        0x0 C:/Users/fg7fww/_Install/App/DemoBoards/RSL10/Packages_RSL10_2.0/ONSemiconductor/RSL10/2.0.0//lib/ble_core/release\libblelib.a(rwble_hl.o)
 .bss           0x00000000        0x0 C:/Users/fg7fww/_Install/App/DemoBoards/RSL10/Packages_RSL10_2.0/ONSemiconductor/RSL10/2.0.0//lib/ble_core/release\libblelib.a(rwble_hl.o)
 .text          0x00000000        0x0 C:/Users/fg7fww/_Install/App/DemoBoards/RSL10/Packages_RSL10_2.0/ONSemiconductor/RSL10/2.0.0//lib/ble_core/release\libblelib.a(l2cm.o)
 .data          0x00000000        0x0 C:/Users/fg7fww/_Install/App/DemoBoards/RSL10/Packages_RSL10_2.0/ONSemiconductor/RSL10/2.0.0//lib/ble_core/release\libblelib.a(l2cm.o)
 .bss           0x00000000        0x0 C:/Users/fg7fww/_Install/App/DemoBoards/RSL10/Packages_RSL10_2.0/ONSemiconductor/RSL10/2.0.0//lib/ble_core/release\libblelib.a(l2cm.o)
 .text          0x00000000        0x0 C:/Users/fg7fww/_Install/App/DemoBoards/RSL10/Packages_RSL10_2.0/ONSemiconductor/RSL10/2.0.0//lib/ble_core/release\libblelib.a(l2cc.o)
 .data          0x00000000        0x0 C:/Users/fg7fww/_Install/App/DemoBoards/RSL10/Packages_RSL10_2.0/ONSemiconductor/RSL10/2.0.0//lib/ble_core/release\libblelib.a(l2cc.o)
 .bss           0x00000000        0x0 C:/Users/fg7fww/_Install/App/DemoBoards/RSL10/Packages_RSL10_2.0/ONSemiconductor/RSL10/2.0.0//lib/ble_core/release\libblelib.a(l2cc.o)
 .text          0x00000000        0x0 C:/Users/fg7fww/_Install/App/DemoBoards/RSL10/Packages_RSL10_2.0/ONSemiconductor/RSL10/2.0.0//lib/ble_core/release\libblelib.a(l2cc_lecb.o)
 .data          0x00000000        0x0 C:/Users/fg7fww/_Install/App/DemoBoards/RSL10/Packages_RSL10_2.0/ONSemiconductor/RSL10/2.0.0//lib/ble_core/release\libblelib.a(l2cc_lecb.o)
 .bss           0x00000000        0x0 C:/Users/fg7fww/_Install/App/DemoBoards/RSL10/Packages_RSL10_2.0/ONSemiconductor/RSL10/2.0.0//lib/ble_core/release\libblelib.a(l2cc_lecb.o)
 .text          0x00000000        0x0 C:/Users/fg7fww/_Install/App/DemoBoards/RSL10/Packages_RSL10_2.0/ONSemiconductor/RSL10/2.0.0//lib/ble_core/release\libblelib.a(l2cc_pdu.o)
 .data          0x00000000        0x0 C:/Users/fg7fww/_Install/App/DemoBoards/RSL10/Packages_RSL10_2.0/ONSemiconductor/RSL10/2.0.0//lib/ble_core/release\libblelib.a(l2cc_pdu.o)
 .bss           0x00000000        0x0 C:/Users/fg7fww/_Install/App/DemoBoards/RSL10/Packages_RSL10_2.0/ONSemiconductor/RSL10/2.0.0//lib/ble_core/release\libblelib.a(l2cc_pdu.o)
 .text          0x00000000        0x0 C:/Users/fg7fww/_Install/App/DemoBoards/RSL10/Packages_RSL10_2.0/ONSemiconductor/RSL10/2.0.0//lib/ble_core/release\libblelib.a(l2cc_task.o)
 .data          0x00000000        0x0 C:/Users/fg7fww/_Install/App/DemoBoards/RSL10/Packages_RSL10_2.0/ONSemiconductor/RSL10/2.0.0//lib/ble_core/release\libblelib.a(l2cc_task.o)
 .bss           0x00000000        0x0 C:/Users/fg7fww/_Install/App/DemoBoards/RSL10/Packages_RSL10_2.0/ONSemiconductor/RSL10/2.0.0//lib/ble_core/release\libblelib.a(l2cc_task.o)
 .text          0x00000000        0x0 C:/Users/fg7fww/_Install/App/DemoBoards/RSL10/Packages_RSL10_2.0/ONSemiconductor/RSL10/2.0.0//lib/ble_core/release\libblelib.a(gattm.o)
 .data          0x00000000        0x0 C:/Users/fg7fww/_Install/App/DemoBoards/RSL10/Packages_RSL10_2.0/ONSemiconductor/RSL10/2.0.0//lib/ble_core/release\libblelib.a(gattm.o)
 .bss           0x00000000        0x0 C:/Users/fg7fww/_Install/App/DemoBoards/RSL10/Packages_RSL10_2.0/ONSemiconductor/RSL10/2.0.0//lib/ble_core/release\libblelib.a(gattm.o)
 .text          0x00000000        0x0 C:/Users/fg7fww/_Install/App/DemoBoards/RSL10/Packages_RSL10_2.0/ONSemiconductor/RSL10/2.0.0//lib/ble_core/release\libblelib.a(gattm_task.o)
 .data          0x00000000        0x0 C:/Users/fg7fww/_Install/App/DemoBoards/RSL10/Packages_RSL10_2.0/ONSemiconductor/RSL10/2.0.0//lib/ble_core/release\libblelib.a(gattm_task.o)
 .bss           0x00000000        0x0 C:/Users/fg7fww/_Install/App/DemoBoards/RSL10/Packages_RSL10_2.0/ONSemiconductor/RSL10/2.0.0//lib/ble_core/release\libblelib.a(gattm_task.o)
 .text          0x00000000        0x0 C:/Users/fg7fww/_Install/App/DemoBoards/RSL10/Packages_RSL10_2.0/ONSemiconductor/RSL10/2.0.0//lib/ble_core/release\libblelib.a(gattc.o)
 .data          0x00000000        0x0 C:/Users/fg7fww/_Install/App/DemoBoards/RSL10/Packages_RSL10_2.0/ONSemiconductor/RSL10/2.0.0//lib/ble_core/release\libblelib.a(gattc.o)
 .bss           0x00000000        0x0 C:/Users/fg7fww/_Install/App/DemoBoards/RSL10/Packages_RSL10_2.0/ONSemiconductor/RSL10/2.0.0//lib/ble_core/release\libblelib.a(gattc.o)
 .text.gattc_get_op_seq_num
                0x00000000       0x14 C:/Users/fg7fww/_Install/App/DemoBoards/RSL10/Packages_RSL10_2.0/ONSemiconductor/RSL10/2.0.0//lib/ble_core/release\libblelib.a(gattc.o)
 .text          0x00000000        0x0 C:/Users/fg7fww/_Install/App/DemoBoards/RSL10/Packages_RSL10_2.0/ONSemiconductor/RSL10/2.0.0//lib/ble_core/release\libblelib.a(gattc_task.o)
 .data          0x00000000        0x0 C:/Users/fg7fww/_Install/App/DemoBoards/RSL10/Packages_RSL10_2.0/ONSemiconductor/RSL10/2.0.0//lib/ble_core/release\libblelib.a(gattc_task.o)
 .bss           0x00000000        0x0 C:/Users/fg7fww/_Install/App/DemoBoards/RSL10/Packages_RSL10_2.0/ONSemiconductor/RSL10/2.0.0//lib/ble_core/release\libblelib.a(gattc_task.o)
 .text          0x00000000        0x0 C:/Users/fg7fww/_Install/App/DemoBoards/RSL10/Packages_RSL10_2.0/ONSemiconductor/RSL10/2.0.0//lib/ble_core/release\libblelib.a(atts.o)
 .data          0x00000000        0x0 C:/Users/fg7fww/_Install/App/DemoBoards/RSL10/Packages_RSL10_2.0/ONSemiconductor/RSL10/2.0.0//lib/ble_core/release\libblelib.a(atts.o)
 .bss           0x00000000        0x0 C:/Users/fg7fww/_Install/App/DemoBoards/RSL10/Packages_RSL10_2.0/ONSemiconductor/RSL10/2.0.0//lib/ble_core/release\libblelib.a(atts.o)
 .text          0x00000000        0x0 C:/Users/fg7fww/_Install/App/DemoBoards/RSL10/Packages_RSL10_2.0/ONSemiconductor/RSL10/2.0.0//lib/ble_core/release\libblelib.a(attm.o)
 .data          0x00000000        0x0 C:/Users/fg7fww/_Install/App/DemoBoards/RSL10/Packages_RSL10_2.0/ONSemiconductor/RSL10/2.0.0//lib/ble_core/release\libblelib.a(attm.o)
 .bss           0x00000000        0x0 C:/Users/fg7fww/_Install/App/DemoBoards/RSL10/Packages_RSL10_2.0/ONSemiconductor/RSL10/2.0.0//lib/ble_core/release\libblelib.a(attm.o)
 .text.attm_svc_create_db_128
                0x00000000      0x11a C:/Users/fg7fww/_Install/App/DemoBoards/RSL10/Packages_RSL10_2.0/ONSemiconductor/RSL10/2.0.0//lib/ble_core/release\libblelib.a(attm.o)
 .text.attm_reserve_handle_range
                0x00000000       0x22 C:/Users/fg7fww/_Install/App/DemoBoards/RSL10/Packages_RSL10_2.0/ONSemiconductor/RSL10/2.0.0//lib/ble_core/release\libblelib.a(attm.o)
 .text          0x00000000        0x0 C:/Users/fg7fww/_Install/App/DemoBoards/RSL10/Packages_RSL10_2.0/ONSemiconductor/RSL10/2.0.0//lib/ble_core/release\libblelib.a(attm_db.o)
 .data          0x00000000        0x0 C:/Users/fg7fww/_Install/App/DemoBoards/RSL10/Packages_RSL10_2.0/ONSemiconductor/RSL10/2.0.0//lib/ble_core/release\libblelib.a(attm_db.o)
 .bss           0x00000000        0x0 C:/Users/fg7fww/_Install/App/DemoBoards/RSL10/Packages_RSL10_2.0/ONSemiconductor/RSL10/2.0.0//lib/ble_core/release\libblelib.a(attm_db.o)
 .text          0x00000000        0x0 C:/Users/fg7fww/_Install/App/DemoBoards/RSL10/Packages_RSL10_2.0/ONSemiconductor/RSL10/2.0.0//lib/ble_core/release\libblelib.a(attc.o)
 .data          0x00000000        0x0 C:/Users/fg7fww/_Install/App/DemoBoards/RSL10/Packages_RSL10_2.0/ONSemiconductor/RSL10/2.0.0//lib/ble_core/release\libblelib.a(attc.o)
 .bss           0x00000000        0x0 C:/Users/fg7fww/_Install/App/DemoBoards/RSL10/Packages_RSL10_2.0/ONSemiconductor/RSL10/2.0.0//lib/ble_core/release\libblelib.a(attc.o)
 .text          0x00000000        0x0 C:/Users/fg7fww/_Install/App/DemoBoards/RSL10/Packages_RSL10_2.0/ONSemiconductor/RSL10/2.0.0//lib/ble_core/release\libblelib.a(gapm.o)
 .data          0x00000000        0x0 C:/Users/fg7fww/_Install/App/DemoBoards/RSL10/Packages_RSL10_2.0/ONSemiconductor/RSL10/2.0.0//lib/ble_core/release\libblelib.a(gapm.o)
 .bss           0x00000000        0x0 C:/Users/fg7fww/_Install/App/DemoBoards/RSL10/Packages_RSL10_2.0/ONSemiconductor/RSL10/2.0.0//lib/ble_core/release\libblelib.a(gapm.o)
 .text.gapm_get_id_from_task
                0x00000000       0x36 C:/Users/fg7fww/_Install/App/DemoBoards/RSL10/Packages_RSL10_2.0/ONSemiconductor/RSL10/2.0.0//lib/ble_core/release\libblelib.a(gapm.o)
 .text.gapm_get_task_from_id
                0x00000000       0x3e C:/Users/fg7fww/_Install/App/DemoBoards/RSL10/Packages_RSL10_2.0/ONSemiconductor/RSL10/2.0.0//lib/ble_core/release\libblelib.a(gapm.o)
 .text          0x00000000        0x0 C:/Users/fg7fww/_Install/App/DemoBoards/RSL10/Packages_RSL10_2.0/ONSemiconductor/RSL10/2.0.0//lib/ble_core/release\libblelib.a(gapm_task.o)
 .data          0x00000000        0x0 C:/Users/fg7fww/_Install/App/DemoBoards/RSL10/Packages_RSL10_2.0/ONSemiconductor/RSL10/2.0.0//lib/ble_core/release\libblelib.a(gapm_task.o)
 .bss           0x00000000        0x0 C:/Users/fg7fww/_Install/App/DemoBoards/RSL10/Packages_RSL10_2.0/ONSemiconductor/RSL10/2.0.0//lib/ble_core/release\libblelib.a(gapm_task.o)
 .text          0x00000000        0x0 C:/Users/fg7fww/_Install/App/DemoBoards/RSL10/Packages_RSL10_2.0/ONSemiconductor/RSL10/2.0.0//lib/ble_core/release\libblelib.a(gapm_util.o)
 .data          0x00000000        0x0 C:/Users/fg7fww/_Install/App/DemoBoards/RSL10/Packages_RSL10_2.0/ONSemiconductor/RSL10/2.0.0//lib/ble_core/release\libblelib.a(gapm_util.o)
 .bss           0x00000000        0x0 C:/Users/fg7fww/_Install/App/DemoBoards/RSL10/Packages_RSL10_2.0/ONSemiconductor/RSL10/2.0.0//lib/ble_core/release\libblelib.a(gapm_util.o)
 .text          0x00000000        0x0 C:/Users/fg7fww/_Install/App/DemoBoards/RSL10/Packages_RSL10_2.0/ONSemiconductor/RSL10/2.0.0//lib/ble_core/release\libblelib.a(gapc.o)
 .data          0x00000000        0x0 C:/Users/fg7fww/_Install/App/DemoBoards/RSL10/Packages_RSL10_2.0/ONSemiconductor/RSL10/2.0.0//lib/ble_core/release\libblelib.a(gapc.o)
 .bss           0x00000000        0x0 C:/Users/fg7fww/_Install/App/DemoBoards/RSL10/Packages_RSL10_2.0/ONSemiconductor/RSL10/2.0.0//lib/ble_core/release\libblelib.a(gapc.o)
 .text          0x00000000        0x0 C:/Users/fg7fww/_Install/App/DemoBoards/RSL10/Packages_RSL10_2.0/ONSemiconductor/RSL10/2.0.0//lib/ble_core/release\libblelib.a(gapc_task.o)
 .data          0x00000000        0x0 C:/Users/fg7fww/_Install/App/DemoBoards/RSL10/Packages_RSL10_2.0/ONSemiconductor/RSL10/2.0.0//lib/ble_core/release\libblelib.a(gapc_task.o)
 .bss           0x00000000        0x0 C:/Users/fg7fww/_Install/App/DemoBoards/RSL10/Packages_RSL10_2.0/ONSemiconductor/RSL10/2.0.0//lib/ble_core/release\libblelib.a(gapc_task.o)
 .text          0x00000000        0x0 C:/Users/fg7fww/_Install/App/DemoBoards/RSL10/Packages_RSL10_2.0/ONSemiconductor/RSL10/2.0.0//lib/ble_core/release\libblelib.a(ecc_p256.o)
 .data          0x00000000        0x0 C:/Users/fg7fww/_Install/App/DemoBoards/RSL10/Packages_RSL10_2.0/ONSemiconductor/RSL10/2.0.0//lib/ble_core/release\libblelib.a(ecc_p256.o)
 .bss           0x00000000        0x0 C:/Users/fg7fww/_Install/App/DemoBoards/RSL10/Packages_RSL10_2.0/ONSemiconductor/RSL10/2.0.0//lib/ble_core/release\libblelib.a(ecc_p256.o)
 .text.SubtractBigHexUint32_256
                0x00000000       0x64 C:/Users/fg7fww/_Install/App/DemoBoards/RSL10/Packages_RSL10_2.0/ONSemiconductor/RSL10/2.0.0//lib/ble_core/release\libblelib.a(ecc_p256.o)
 .text.ecc_abort_key256_generation
                0x00000000       0x3c C:/Users/fg7fww/_Install/App/DemoBoards/RSL10/Packages_RSL10_2.0/ONSemiconductor/RSL10/2.0.0//lib/ble_core/release\libblelib.a(ecc_p256.o)
 .text.ecc_get_debug_Keys
                0x00000000       0x2c C:/Users/fg7fww/_Install/App/DemoBoards/RSL10/Packages_RSL10_2.0/ONSemiconductor/RSL10/2.0.0//lib/ble_core/release\libblelib.a(ecc_p256.o)
 .rodata.DebugE256PublicKey_x
                0x00000000       0x20 C:/Users/fg7fww/_Install/App/DemoBoards/RSL10/Packages_RSL10_2.0/ONSemiconductor/RSL10/2.0.0//lib/ble_core/release\libblelib.a(ecc_p256.o)
 .rodata.DebugE256PublicKey_y
                0x00000000       0x20 C:/Users/fg7fww/_Install/App/DemoBoards/RSL10/Packages_RSL10_2.0/ONSemiconductor/RSL10/2.0.0//lib/ble_core/release\libblelib.a(ecc_p256.o)
 .rodata.DebugE256SecretKey
                0x00000000       0x20 C:/Users/fg7fww/_Install/App/DemoBoards/RSL10/Packages_RSL10_2.0/ONSemiconductor/RSL10/2.0.0//lib/ble_core/release\libblelib.a(ecc_p256.o)
 .text          0x00000000        0x0 C:/Users/fg7fww/_Install/App/DemoBoards/RSL10/Packages_RSL10_2.0/ONSemiconductor/RSL10/2.0.0//lib/ble_core/release\libblelib.a(ea.o)
 .data          0x00000000        0x0 C:/Users/fg7fww/_Install/App/DemoBoards/RSL10/Packages_RSL10_2.0/ONSemiconductor/RSL10/2.0.0//lib/ble_core/release\libblelib.a(ea.o)
 .bss           0x00000000        0x0 C:/Users/fg7fww/_Install/App/DemoBoards/RSL10/Packages_RSL10_2.0/ONSemiconductor/RSL10/2.0.0//lib/ble_core/release\libblelib.a(ea.o)
 .text.ea_interval_delete
                0x00000000       0x20 C:/Users/fg7fww/_Install/App/DemoBoards/RSL10/Packages_RSL10_2.0/ONSemiconductor/RSL10/2.0.0//lib/ble_core/release\libblelib.a(ea.o)
 .text.ea_timer_target_get
                0x00000000       0x10 C:/Users/fg7fww/_Install/App/DemoBoards/RSL10/Packages_RSL10_2.0/ONSemiconductor/RSL10/2.0.0//lib/ble_core/release\libblelib.a(ea.o)
 .text          0x00000000        0x0 C:/Users/fg7fww/_Install/App/DemoBoards/RSL10/Packages_RSL10_2.0/ONSemiconductor/RSL10/2.0.0//lib/ble_core/release\libblelib.a(llm_hci.o)
 .data          0x00000000        0x0 C:/Users/fg7fww/_Install/App/DemoBoards/RSL10/Packages_RSL10_2.0/ONSemiconductor/RSL10/2.0.0//lib/ble_core/release\libblelib.a(llm_hci.o)
 .bss           0x00000000        0x0 C:/Users/fg7fww/_Install/App/DemoBoards/RSL10/Packages_RSL10_2.0/ONSemiconductor/RSL10/2.0.0//lib/ble_core/release\libblelib.a(llm_hci.o)
 .text          0x00000000        0x0 C:/Users/fg7fww/_Install/App/DemoBoards/RSL10/Packages_RSL10_2.0/ONSemiconductor/RSL10/2.0.0//lib/ble_core/release\libblelib.a(llc_ch_asses.o)
 .data          0x00000000        0x0 C:/Users/fg7fww/_Install/App/DemoBoards/RSL10/Packages_RSL10_2.0/ONSemiconductor/RSL10/2.0.0//lib/ble_core/release\libblelib.a(llc_ch_asses.o)
 .bss           0x00000000        0x0 C:/Users/fg7fww/_Install/App/DemoBoards/RSL10/Packages_RSL10_2.0/ONSemiconductor/RSL10/2.0.0//lib/ble_core/release\libblelib.a(llc_ch_asses.o)
 .text          0x00000000        0x0 C:/Users/fg7fww/_Install/App/DemoBoards/RSL10/Packages_RSL10_2.0/ONSemiconductor/RSL10/2.0.0//lib/ble_core/release\libblelib.a(llc_hci.o)
 .data          0x00000000        0x0 C:/Users/fg7fww/_Install/App/DemoBoards/RSL10/Packages_RSL10_2.0/ONSemiconductor/RSL10/2.0.0//lib/ble_core/release\libblelib.a(llc_hci.o)
 .bss           0x00000000        0x0 C:/Users/fg7fww/_Install/App/DemoBoards/RSL10/Packages_RSL10_2.0/ONSemiconductor/RSL10/2.0.0//lib/ble_core/release\libblelib.a(llc_hci.o)
 .text          0x00000000        0x0 C:/Users/fg7fww/_Install/App/DemoBoards/RSL10/Packages_RSL10_2.0/ONSemiconductor/RSL10/2.0.0//lib/ble_core/release\libblelib.a(l2cc_sig.o)
 .data          0x00000000        0x0 C:/Users/fg7fww/_Install/App/DemoBoards/RSL10/Packages_RSL10_2.0/ONSemiconductor/RSL10/2.0.0//lib/ble_core/release\libblelib.a(l2cc_sig.o)
 .bss           0x00000000        0x0 C:/Users/fg7fww/_Install/App/DemoBoards/RSL10/Packages_RSL10_2.0/ONSemiconductor/RSL10/2.0.0//lib/ble_core/release\libblelib.a(l2cc_sig.o)
 .text          0x00000000        0x0 C:/Users/fg7fww/_Install/App/DemoBoards/RSL10/Packages_RSL10_2.0/ONSemiconductor/RSL10/2.0.0//lib/ble_core/release\libblelib.a(smpm_api.o)
 .data          0x00000000        0x0 C:/Users/fg7fww/_Install/App/DemoBoards/RSL10/Packages_RSL10_2.0/ONSemiconductor/RSL10/2.0.0//lib/ble_core/release\libblelib.a(smpm_api.o)
 .bss           0x00000000        0x0 C:/Users/fg7fww/_Install/App/DemoBoards/RSL10/Packages_RSL10_2.0/ONSemiconductor/RSL10/2.0.0//lib/ble_core/release\libblelib.a(smpm_api.o)
 .text          0x00000000        0x0 C:/Users/fg7fww/_Install/App/DemoBoards/RSL10/Packages_RSL10_2.0/ONSemiconductor/RSL10/2.0.0//lib/ble_core/release\libblelib.a(smpc.o)
 .data          0x00000000        0x0 C:/Users/fg7fww/_Install/App/DemoBoards/RSL10/Packages_RSL10_2.0/ONSemiconductor/RSL10/2.0.0//lib/ble_core/release\libblelib.a(smpc.o)
 .bss           0x00000000        0x0 C:/Users/fg7fww/_Install/App/DemoBoards/RSL10/Packages_RSL10_2.0/ONSemiconductor/RSL10/2.0.0//lib/ble_core/release\libblelib.a(smpc.o)
 .text          0x00000000        0x0 C:/Users/fg7fww/_Install/App/DemoBoards/RSL10/Packages_RSL10_2.0/ONSemiconductor/RSL10/2.0.0//lib/ble_core/release\libblelib.a(smpc_api.o)
 .data          0x00000000        0x0 C:/Users/fg7fww/_Install/App/DemoBoards/RSL10/Packages_RSL10_2.0/ONSemiconductor/RSL10/2.0.0//lib/ble_core/release\libblelib.a(smpc_api.o)
 .bss           0x00000000        0x0 C:/Users/fg7fww/_Install/App/DemoBoards/RSL10/Packages_RSL10_2.0/ONSemiconductor/RSL10/2.0.0//lib/ble_core/release\libblelib.a(smpc_api.o)
 .text          0x00000000        0x0 C:/Users/fg7fww/_Install/App/DemoBoards/RSL10/Packages_RSL10_2.0/ONSemiconductor/RSL10/2.0.0//lib/ble_core/release\libblelib.a(smpc_crypto.o)
 .data          0x00000000        0x0 C:/Users/fg7fww/_Install/App/DemoBoards/RSL10/Packages_RSL10_2.0/ONSemiconductor/RSL10/2.0.0//lib/ble_core/release\libblelib.a(smpc_crypto.o)
 .bss           0x00000000        0x0 C:/Users/fg7fww/_Install/App/DemoBoards/RSL10/Packages_RSL10_2.0/ONSemiconductor/RSL10/2.0.0//lib/ble_core/release\libblelib.a(smpc_crypto.o)
 .text          0x00000000        0x0 C:/Users/fg7fww/_Install/App/DemoBoards/RSL10/Packages_RSL10_2.0/ONSemiconductor/RSL10/2.0.0//lib/ble_core/release\libblelib.a(smpc_util.o)
 .data          0x00000000        0x0 C:/Users/fg7fww/_Install/App/DemoBoards/RSL10/Packages_RSL10_2.0/ONSemiconductor/RSL10/2.0.0//lib/ble_core/release\libblelib.a(smpc_util.o)
 .bss           0x00000000        0x0 C:/Users/fg7fww/_Install/App/DemoBoards/RSL10/Packages_RSL10_2.0/ONSemiconductor/RSL10/2.0.0//lib/ble_core/release\libblelib.a(smpc_util.o)
 .text          0x00000000        0x0 C:/Users/fg7fww/_Install/App/DemoBoards/RSL10/Packages_RSL10_2.0/ONSemiconductor/RSL10/2.0.0//lib/ble_core/release\libblelib.a(gapm_hci.o)
 .data          0x00000000        0x0 C:/Users/fg7fww/_Install/App/DemoBoards/RSL10/Packages_RSL10_2.0/ONSemiconductor/RSL10/2.0.0//lib/ble_core/release\libblelib.a(gapm_hci.o)
 .bss           0x00000000        0x0 C:/Users/fg7fww/_Install/App/DemoBoards/RSL10/Packages_RSL10_2.0/ONSemiconductor/RSL10/2.0.0//lib/ble_core/release\libblelib.a(gapm_hci.o)
 .text          0x00000000        0x0 C:/Users/fg7fww/_Install/App/DemoBoards/RSL10/Packages_RSL10_2.0/ONSemiconductor/RSL10/2.0.0//lib/ble_core/release\libblelib.a(gapc_hci.o)
 .data          0x00000000        0x0 C:/Users/fg7fww/_Install/App/DemoBoards/RSL10/Packages_RSL10_2.0/ONSemiconductor/RSL10/2.0.0//lib/ble_core/release\libblelib.a(gapc_hci.o)
 .bss           0x00000000        0x0 C:/Users/fg7fww/_Install/App/DemoBoards/RSL10/Packages_RSL10_2.0/ONSemiconductor/RSL10/2.0.0//lib/ble_core/release\libblelib.a(gapc_hci.o)
 .text          0x00000000        0x0 C:/Users/fg7fww/_Install/App/DemoBoards/RSL10/Packages_RSL10_2.0/ONSemiconductor/RSL10/2.0.0//lib/ble_core/release\libblelib.a(gapc_sig.o)
 .data          0x00000000        0x0 C:/Users/fg7fww/_Install/App/DemoBoards/RSL10/Packages_RSL10_2.0/ONSemiconductor/RSL10/2.0.0//lib/ble_core/release\libblelib.a(gapc_sig.o)
 .bss           0x00000000        0x0 C:/Users/fg7fww/_Install/App/DemoBoards/RSL10/Packages_RSL10_2.0/ONSemiconductor/RSL10/2.0.0//lib/ble_core/release\libblelib.a(gapc_sig.o)
 .rodata.gapc_sig_handlers
                0x00000000       0x18 C:/Users/fg7fww/_Install/App/DemoBoards/RSL10/Packages_RSL10_2.0/ONSemiconductor/RSL10/2.0.0//lib/ble_core/release\libblelib.a(gapc_sig.o)
 .text          0x00000000        0x0 C:/Users/fg7fww/_Install/App/DemoBoards/RSL10/Packages_RSL10_2.0/ONSemiconductor/RSL10/2.0.0//lib/ble_core/release\libkelib.a(ke.o)
 .data          0x00000000        0x0 C:/Users/fg7fww/_Install/App/DemoBoards/RSL10/Packages_RSL10_2.0/ONSemiconductor/RSL10/2.0.0//lib/ble_core/release\libkelib.a(ke.o)
 .bss           0x00000000        0x0 C:/Users/fg7fww/_Install/App/DemoBoards/RSL10/Packages_RSL10_2.0/ONSemiconductor/RSL10/2.0.0//lib/ble_core/release\libkelib.a(ke.o)
 .text.ke_sleep_check
                0x00000000        0xe C:/Users/fg7fww/_Install/App/DemoBoards/RSL10/Packages_RSL10_2.0/ONSemiconductor/RSL10/2.0.0//lib/ble_core/release\libkelib.a(ke.o)
 .text          0x00000000        0x0 C:/Users/fg7fww/_Install/App/DemoBoards/RSL10/Packages_RSL10_2.0/ONSemiconductor/RSL10/2.0.0//lib/ble_core/release\libkelib.a(ke_event.o)
 .data          0x00000000        0x0 C:/Users/fg7fww/_Install/App/DemoBoards/RSL10/Packages_RSL10_2.0/ONSemiconductor/RSL10/2.0.0//lib/ble_core/release\libkelib.a(ke_event.o)
 .bss           0x00000000        0x0 C:/Users/fg7fww/_Install/App/DemoBoards/RSL10/Packages_RSL10_2.0/ONSemiconductor/RSL10/2.0.0//lib/ble_core/release\libkelib.a(ke_event.o)
 .text.ke_event_get
                0x00000000       0x20 C:/Users/fg7fww/_Install/App/DemoBoards/RSL10/Packages_RSL10_2.0/ONSemiconductor/RSL10/2.0.0//lib/ble_core/release\libkelib.a(ke_event.o)
 .text.ke_event_get_all
                0x00000000        0xc C:/Users/fg7fww/_Install/App/DemoBoards/RSL10/Packages_RSL10_2.0/ONSemiconductor/RSL10/2.0.0//lib/ble_core/release\libkelib.a(ke_event.o)
 .text          0x00000000        0x0 C:/Users/fg7fww/_Install/App/DemoBoards/RSL10/Packages_RSL10_2.0/ONSemiconductor/RSL10/2.0.0//lib/ble_core/release\libkelib.a(ke_mem.o)
 .data          0x00000000        0x0 C:/Users/fg7fww/_Install/App/DemoBoards/RSL10/Packages_RSL10_2.0/ONSemiconductor/RSL10/2.0.0//lib/ble_core/release\libkelib.a(ke_mem.o)
 .bss           0x00000000        0x0 C:/Users/fg7fww/_Install/App/DemoBoards/RSL10/Packages_RSL10_2.0/ONSemiconductor/RSL10/2.0.0//lib/ble_core/release\libkelib.a(ke_mem.o)
 .text.ke_mem_is_empty
                0x00000000       0x28 C:/Users/fg7fww/_Install/App/DemoBoards/RSL10/Packages_RSL10_2.0/ONSemiconductor/RSL10/2.0.0//lib/ble_core/release\libkelib.a(ke_mem.o)
 .text          0x00000000        0x0 C:/Users/fg7fww/_Install/App/DemoBoards/RSL10/Packages_RSL10_2.0/ONSemiconductor/RSL10/2.0.0//lib/ble_core/release\libkelib.a(ke_msg.o)
 .data          0x00000000        0x0 C:/Users/fg7fww/_Install/App/DemoBoards/RSL10/Packages_RSL10_2.0/ONSemiconductor/RSL10/2.0.0//lib/ble_core/release\libkelib.a(ke_msg.o)
 .bss           0x00000000        0x0 C:/Users/fg7fww/_Install/App/DemoBoards/RSL10/Packages_RSL10_2.0/ONSemiconductor/RSL10/2.0.0//lib/ble_core/release\libkelib.a(ke_msg.o)
 .text.ke_msg_forward_new_id
                0x00000000       0x14 C:/Users/fg7fww/_Install/App/DemoBoards/RSL10/Packages_RSL10_2.0/ONSemiconductor/RSL10/2.0.0//lib/ble_core/release\libkelib.a(ke_msg.o)
 .text.ke_msg_dest_id_get
                0x00000000        0x6 C:/Users/fg7fww/_Install/App/DemoBoards/RSL10/Packages_RSL10_2.0/ONSemiconductor/RSL10/2.0.0//lib/ble_core/release\libkelib.a(ke_msg.o)
 .text          0x00000000        0x0 C:/Users/fg7fww/_Install/App/DemoBoards/RSL10/Packages_RSL10_2.0/ONSemiconductor/RSL10/2.0.0//lib/ble_core/release\libkelib.a(ke_task.o)
 .data          0x00000000        0x0 C:/Users/fg7fww/_Install/App/DemoBoards/RSL10/Packages_RSL10_2.0/ONSemiconductor/RSL10/2.0.0//lib/ble_core/release\libkelib.a(ke_task.o)
 .bss           0x00000000        0x0 C:/Users/fg7fww/_Install/App/DemoBoards/RSL10/Packages_RSL10_2.0/ONSemiconductor/RSL10/2.0.0//lib/ble_core/release\libkelib.a(ke_task.o)
 .text.ke_task_delete
                0x00000000       0x1c C:/Users/fg7fww/_Install/App/DemoBoards/RSL10/Packages_RSL10_2.0/ONSemiconductor/RSL10/2.0.0//lib/ble_core/release\libkelib.a(ke_task.o)
 .text.ke_msg_save
                0x00000000        0x4 C:/Users/fg7fww/_Install/App/DemoBoards/RSL10/Packages_RSL10_2.0/ONSemiconductor/RSL10/2.0.0//lib/ble_core/release\libkelib.a(ke_task.o)
 .text.ke_task_check
                0x00000000       0x24 C:/Users/fg7fww/_Install/App/DemoBoards/RSL10/Packages_RSL10_2.0/ONSemiconductor/RSL10/2.0.0//lib/ble_core/release\libkelib.a(ke_task.o)
 .text          0x00000000        0x0 C:/Users/fg7fww/_Install/App/DemoBoards/RSL10/Packages_RSL10_2.0/ONSemiconductor/RSL10/2.0.0//lib/ble_core/release\libkelib.a(ke_timer.o)
 .data          0x00000000        0x0 C:/Users/fg7fww/_Install/App/DemoBoards/RSL10/Packages_RSL10_2.0/ONSemiconductor/RSL10/2.0.0//lib/ble_core/release\libkelib.a(ke_timer.o)
 .bss           0x00000000        0x0 C:/Users/fg7fww/_Install/App/DemoBoards/RSL10/Packages_RSL10_2.0/ONSemiconductor/RSL10/2.0.0//lib/ble_core/release\libkelib.a(ke_timer.o)
 .text.ke_timer_adjust_all
                0x00000000       0x18 C:/Users/fg7fww/_Install/App/DemoBoards/RSL10/Packages_RSL10_2.0/ONSemiconductor/RSL10/2.0.0//lib/ble_core/release\libkelib.a(ke_timer.o)
 .text.ke_timer_target_get
                0x00000000       0x18 C:/Users/fg7fww/_Install/App/DemoBoards/RSL10/Packages_RSL10_2.0/ONSemiconductor/RSL10/2.0.0//lib/ble_core/release\libkelib.a(ke_timer.o)
 .text          0x00000000        0x0 C:/Users/fg7fww/_Install/App/DemoBoards/RSL10/Packages_RSL10_2.0/ONSemiconductor/RSL10/2.0.0//lib/ble_core/release\libkelib.a(rst_grosstime.o)
 .data          0x00000000        0x0 C:/Users/fg7fww/_Install/App/DemoBoards/RSL10/Packages_RSL10_2.0/ONSemiconductor/RSL10/2.0.0//lib/ble_core/release\libkelib.a(rst_grosstime.o)
 .bss           0x00000000        0x0 C:/Users/fg7fww/_Install/App/DemoBoards/RSL10/Packages_RSL10_2.0/ONSemiconductor/RSL10/2.0.0//lib/ble_core/release\libkelib.a(rst_grosstime.o)
 .text          0x00000000        0x0 C:/Users/fg7fww/_Install/App/DemoBoards/RSL10/Packages_RSL10_2.0/ONSemiconductor/RSL10/2.0.0//lib/ble_core/release\libkelib.a(rwip2.o)
 .data          0x00000000        0x0 C:/Users/fg7fww/_Install/App/DemoBoards/RSL10/Packages_RSL10_2.0/ONSemiconductor/RSL10/2.0.0//lib/ble_core/release\libkelib.a(rwip2.o)
 .bss           0x00000000        0x0 C:/Users/fg7fww/_Install/App/DemoBoards/RSL10/Packages_RSL10_2.0/ONSemiconductor/RSL10/2.0.0//lib/ble_core/release\libkelib.a(rwip2.o)
 .text          0x00000000        0x0 C:/Users/fg7fww/_Install/App/DemoBoards/RSL10/Packages_RSL10_2.0/ONSemiconductor/RSL10/2.0.0//lib/ble_core/release\libkelib.a(co_list.o)
 .data          0x00000000        0x0 C:/Users/fg7fww/_Install/App/DemoBoards/RSL10/Packages_RSL10_2.0/ONSemiconductor/RSL10/2.0.0//lib/ble_core/release\libkelib.a(co_list.o)
 .bss           0x00000000        0x0 C:/Users/fg7fww/_Install/App/DemoBoards/RSL10/Packages_RSL10_2.0/ONSemiconductor/RSL10/2.0.0//lib/ble_core/release\libkelib.a(co_list.o)
 .text.co_list_pool_init
                0x00000000       0x62 C:/Users/fg7fww/_Install/App/DemoBoards/RSL10/Packages_RSL10_2.0/ONSemiconductor/RSL10/2.0.0//lib/ble_core/release\libkelib.a(co_list.o)
 .text.co_list_check_size_available
                0x00000000       0x16 C:/Users/fg7fww/_Install/App/DemoBoards/RSL10/Packages_RSL10_2.0/ONSemiconductor/RSL10/2.0.0//lib/ble_core/release\libkelib.a(co_list.o)
 .text          0x00000000        0x0 C:/Users/fg7fww/_Install/App/DemoBoards/RSL10/Packages_RSL10_2.0/ONSemiconductor/RSL10/2.0.0//lib/ble_core/release\libkelib.a(co_utils.o)
 .data          0x00000000        0x0 C:/Users/fg7fww/_Install/App/DemoBoards/RSL10/Packages_RSL10_2.0/ONSemiconductor/RSL10/2.0.0//lib/ble_core/release\libkelib.a(co_utils.o)
 .bss           0x00000000        0x0 C:/Users/fg7fww/_Install/App/DemoBoards/RSL10/Packages_RSL10_2.0/ONSemiconductor/RSL10/2.0.0//lib/ble_core/release\libkelib.a(co_utils.o)
 .rodata.one_bits
                0x00000000       0x10 C:/Users/fg7fww/_Install/App/DemoBoards/RSL10/Packages_RSL10_2.0/ONSemiconductor/RSL10/2.0.0//lib/ble_core/release\libkelib.a(co_utils.o)
 .text          0x00000000        0x0 C:/Users/fg7fww/_Install/App/DemoBoards/RSL10/Packages_RSL10_2.0/ONSemiconductor/RSL10/2.0.0//lib/ble_core/release\libkelib.a(ke_queue.o)
 .data          0x00000000        0x0 C:/Users/fg7fww/_Install/App/DemoBoards/RSL10/Packages_RSL10_2.0/ONSemiconductor/RSL10/2.0.0//lib/ble_core/release\libkelib.a(ke_queue.o)
 .bss           0x00000000        0x0 C:/Users/fg7fww/_Install/App/DemoBoards/RSL10/Packages_RSL10_2.0/ONSemiconductor/RSL10/2.0.0//lib/ble_core/release\libkelib.a(ke_queue.o)
 .text          0x00000000        0x0 C:/Users/fg7fww/_Install/App/DemoBoards/RSL10/Packages_RSL10_2.0/ONSemiconductor/RSL10/2.0.0//lib/ble_profiles/release\libbass.a(bass.o)
 .data          0x00000000        0x0 C:/Users/fg7fww/_Install/App/DemoBoards/RSL10/Packages_RSL10_2.0/ONSemiconductor/RSL10/2.0.0//lib/ble_profiles/release\libbass.a(bass.o)
 .bss           0x00000000        0x0 C:/Users/fg7fww/_Install/App/DemoBoards/RSL10/Packages_RSL10_2.0/ONSemiconductor/RSL10/2.0.0//lib/ble_profiles/release\libbass.a(bass.o)
 .text          0x00000000        0x0 C:/Users/fg7fww/_Install/App/DemoBoards/RSL10/Packages_RSL10_2.0/ONSemiconductor/RSL10/2.0.0//lib/ble_profiles/release\libbass.a(bass_task.o)
 .data          0x00000000        0x0 C:/Users/fg7fww/_Install/App/DemoBoards/RSL10/Packages_RSL10_2.0/ONSemiconductor/RSL10/2.0.0//lib/ble_profiles/release\libbass.a(bass_task.o)
 .bss           0x00000000        0x0 C:/Users/fg7fww/_Install/App/DemoBoards/RSL10/Packages_RSL10_2.0/ONSemiconductor/RSL10/2.0.0//lib/ble_profiles/release\libbass.a(bass_task.o)
 .data          0x00000000        0x0 C:/Users/fg7fww/_Install/App/DemoBoards/RSL10/Packages_RSL10_2.0/ONSemiconductor/RSL10/2.0.0//lib/release\libcmsis.a(startup_rsl10.o)
 .bss           0x00000000        0x0 C:/Users/fg7fww/_Install/App/DemoBoards/RSL10/Packages_RSL10_2.0/ONSemiconductor/RSL10/2.0.0//lib/release\libcmsis.a(startup_rsl10.o)
 .ARM.extab.reset
                0x00000000        0x0 C:/Users/fg7fww/_Install/App/DemoBoards/RSL10/Packages_RSL10_2.0/ONSemiconductor/RSL10/2.0.0//lib/release\libcmsis.a(startup_rsl10.o)
 .text          0x00000000        0x0 C:/Users/fg7fww/_Install/App/DemoBoards/RSL10/Packages_RSL10_2.0/ONSemiconductor/RSL10/2.0.0//lib/release\libcmsis.a(start.o)
 .data          0x00000000        0x0 C:/Users/fg7fww/_Install/App/DemoBoards/RSL10/Packages_RSL10_2.0/ONSemiconductor/RSL10/2.0.0//lib/release\libcmsis.a(start.o)
 .bss           0x00000000        0x0 C:/Users/fg7fww/_Install/App/DemoBoards/RSL10/Packages_RSL10_2.0/ONSemiconductor/RSL10/2.0.0//lib/release\libcmsis.a(start.o)
 .text          0x00000000        0x0 C:/Users/fg7fww/_Install/App/DemoBoards/RSL10/Packages_RSL10_2.0/ONSemiconductor/RSL10/2.0.0//lib/release\libcmsis.a(system_rsl10.o)
 .data          0x00000000        0x0 C:/Users/fg7fww/_Install/App/DemoBoards/RSL10/Packages_RSL10_2.0/ONSemiconductor/RSL10/2.0.0//lib/release\libcmsis.a(system_rsl10.o)
 .bss           0x00000000        0x0 C:/Users/fg7fww/_Install/App/DemoBoards/RSL10/Packages_RSL10_2.0/ONSemiconductor/RSL10/2.0.0//lib/release\libcmsis.a(system_rsl10.o)
 .text          0x00000000        0x0 C:/Users/fg7fww/_Install/App/DemoBoards/RSL10/Packages_RSL10_2.0/ONSemiconductor/RSL10/2.0.0//lib/release\libcmsis.a(sbrk.o)
 .data          0x00000000        0x0 C:/Users/fg7fww/_Install/App/DemoBoards/RSL10/Packages_RSL10_2.0/ONSemiconductor/RSL10/2.0.0//lib/release\libcmsis.a(sbrk.o)
 .bss           0x00000000        0x0 C:/Users/fg7fww/_Install/App/DemoBoards/RSL10/Packages_RSL10_2.0/ONSemiconductor/RSL10/2.0.0//lib/release\libcmsis.a(sbrk.o)
 .text          0x00000000        0x0 C:/Users/fg7fww/_Install/App/DemoBoards/RSL10/Packages_RSL10_2.0/ONSemiconductor/RSL10/2.0.0//lib/release\libsyslib.a(rsl10_protocol.o)
 .data          0x00000000        0x0 C:/Users/fg7fww/_Install/App/DemoBoards/RSL10/Packages_RSL10_2.0/ONSemiconductor/RSL10/2.0.0//lib/release\libsyslib.a(rsl10_protocol.o)
 .bss           0x00000000        0x0 C:/Users/fg7fww/_Install/App/DemoBoards/RSL10/Packages_RSL10_2.0/ONSemiconductor/RSL10/2.0.0//lib/release\libsyslib.a(rsl10_protocol.o)
 .text.Device_Param_Prepare
                0x00000000       0x16 C:/Users/fg7fww/_Install/App/DemoBoards/RSL10/Packages_RSL10_2.0/ONSemiconductor/RSL10/2.0.0//lib/release\libsyslib.a(rsl10_protocol.o)
 .text          0x00000000        0x0 C:/Users/fg7fww/_Install/App/DemoBoards/RSL10/Packages_RSL10_2.0/ONSemiconductor/RSL10/2.0.0//lib/release\libsyslib.a(rsl10_sys_dma.o)
 .data          0x00000000        0x0 C:/Users/fg7fww/_Install/App/DemoBoards/RSL10/Packages_RSL10_2.0/ONSemiconductor/RSL10/2.0.0//lib/release\libsyslib.a(rsl10_sys_dma.o)
 .bss           0x00000000        0x0 C:/Users/fg7fww/_Install/App/DemoBoards/RSL10/Packages_RSL10_2.0/ONSemiconductor/RSL10/2.0.0//lib/release\libsyslib.a(rsl10_sys_dma.o)
 .text          0x00000000        0x0 C:/Users/fg7fww/_Install/App/DemoBoards/RSL10/Packages_RSL10_2.0/ONSemiconductor/RSL10/2.0.0//lib/release\libsyslib.a(rsl10_sys_power_modes.o)
 .data          0x00000000        0x0 C:/Users/fg7fww/_Install/App/DemoBoards/RSL10/Packages_RSL10_2.0/ONSemiconductor/RSL10/2.0.0//lib/release\libsyslib.a(rsl10_sys_power_modes.o)
 .bss           0x00000000        0x0 C:/Users/fg7fww/_Install/App/DemoBoards/RSL10/Packages_RSL10_2.0/ONSemiconductor/RSL10/2.0.0//lib/release\libsyslib.a(rsl10_sys_power_modes.o)
 .sys_powermodes_sleep
                0x00000000       0xa8 C:/Users/fg7fww/_Install/App/DemoBoards/RSL10/Packages_RSL10_2.0/ONSemiconductor/RSL10/2.0.0//lib/release\libsyslib.a(rsl10_sys_power_modes.o)
 .sys_powermodes_wakeup
                0x00000000       0xe8 C:/Users/fg7fww/_Install/App/DemoBoards/RSL10/Packages_RSL10_2.0/ONSemiconductor/RSL10/2.0.0//lib/release\libsyslib.a(rsl10_sys_power_modes.o)
 .sys_powermodes_wakeup_2mbps
                0x00000000      0x180 C:/Users/fg7fww/_Install/App/DemoBoards/RSL10/Packages_RSL10_2.0/ONSemiconductor/RSL10/2.0.0//lib/release\libsyslib.a(rsl10_sys_power_modes.o)
 .text.Sys_PowerModes_Sleep_Init
                0x00000000       0xb0 C:/Users/fg7fww/_Install/App/DemoBoards/RSL10/Packages_RSL10_2.0/ONSemiconductor/RSL10/2.0.0//lib/release\libsyslib.a(rsl10_sys_power_modes.o)
 .text.Sys_PowerModes_Sleep_Init_2Mbps
                0x00000000      0x12c C:/Users/fg7fww/_Install/App/DemoBoards/RSL10/Packages_RSL10_2.0/ONSemiconductor/RSL10/2.0.0//lib/release\libsyslib.a(rsl10_sys_power_modes.o)
 .text.Sys_PowerModes_Sleep_WakeupFromFlash
                0x00000000       0x80 C:/Users/fg7fww/_Install/App/DemoBoards/RSL10/Packages_RSL10_2.0/ONSemiconductor/RSL10/2.0.0//lib/release\libsyslib.a(rsl10_sys_power_modes.o)
 .text.Sys_PowerModes_Standby_Init
                0x00000000       0x6c C:/Users/fg7fww/_Install/App/DemoBoards/RSL10/Packages_RSL10_2.0/ONSemiconductor/RSL10/2.0.0//lib/release\libsyslib.a(rsl10_sys_power_modes.o)
 .text.Sys_PowerModes_Standby
                0x00000000       0x7c C:/Users/fg7fww/_Install/App/DemoBoards/RSL10/Packages_RSL10_2.0/ONSemiconductor/RSL10/2.0.0//lib/release\libsyslib.a(rsl10_sys_power_modes.o)
 .text.Sys_PowerModes_Standby_Wakeup
                0x00000000       0xac C:/Users/fg7fww/_Install/App/DemoBoards/RSL10/Packages_RSL10_2.0/ONSemiconductor/RSL10/2.0.0//lib/release\libsyslib.a(rsl10_sys_power_modes.o)
 .bss.bb_registers_image
                0x00000000      0x1b4 C:/Users/fg7fww/_Install/App/DemoBoards/RSL10/Packages_RSL10_2.0/ONSemiconductor/RSL10/2.0.0//lib/release\libsyslib.a(rsl10_sys_power_modes.o)
 .bss.rf_registers_image_1
                0x00000000       0xc0 C:/Users/fg7fww/_Install/App/DemoBoards/RSL10/Packages_RSL10_2.0/ONSemiconductor/RSL10/2.0.0//lib/release\libsyslib.a(rsl10_sys_power_modes.o)
 .bss.rf_registers_image_2_0x06_0x07
                0x00000000        0x2 C:/Users/fg7fww/_Install/App/DemoBoards/RSL10/Packages_RSL10_2.0/ONSemiconductor/RSL10/2.0.0//lib/release\libsyslib.a(rsl10_sys_power_modes.o)
 .bss.rf_registers_image_2_0x08
                0x00000000        0x1 C:/Users/fg7fww/_Install/App/DemoBoards/RSL10/Packages_RSL10_2.0/ONSemiconductor/RSL10/2.0.0//lib/release\libsyslib.a(rsl10_sys_power_modes.o)
 .bss.rf_registers_image_2_0x1C_0x6F
                0x00000000       0x54 C:/Users/fg7fww/_Install/App/DemoBoards/RSL10/Packages_RSL10_2.0/ONSemiconductor/RSL10/2.0.0//lib/release\libsyslib.a(rsl10_sys_power_modes.o)
 .bss.rf_registers_image_2_0x9F
                0x00000000        0x1 C:/Users/fg7fww/_Install/App/DemoBoards/RSL10/Packages_RSL10_2.0/ONSemiconductor/RSL10/2.0.0//lib/release\libsyslib.a(rsl10_sys_power_modes.o)
 .comment       0x00000000       0x80 C:/Users/fg7fww/_Install/App/DemoBoards/RSL10/Packages_RSL10_2.0/ONSemiconductor/RSL10/2.0.0//lib/release\libsyslib.a(rsl10_sys_power_modes.o)
 .ARM.attributes
                0x00000000       0x33 C:/Users/fg7fww/_Install/App/DemoBoards/RSL10/Packages_RSL10_2.0/ONSemiconductor/RSL10/2.0.0//lib/release\libsyslib.a(rsl10_sys_power_modes.o)
 .text          0x00000000        0x0 C:/Users/fg7fww/_Install/App/DemoBoards/RSL10/Packages_RSL10_2.0/ONSemiconductor/RSL10/2.0.0//lib/release\libsyslib.a(rsl10_sys_rffe.o)
 .data          0x00000000        0x0 C:/Users/fg7fww/_Install/App/DemoBoards/RSL10/Packages_RSL10_2.0/ONSemiconductor/RSL10/2.0.0//lib/release\libsyslib.a(rsl10_sys_rffe.o)
 .bss           0x00000000        0x0 C:/Users/fg7fww/_Install/App/DemoBoards/RSL10/Packages_RSL10_2.0/ONSemiconductor/RSL10/2.0.0//lib/release\libsyslib.a(rsl10_sys_rffe.o)
 .text          0x00000000        0x0 C:/Users/fg7fww/_Install/App/DemoBoards/RSL10/Packages_RSL10_2.0/ONSemiconductor/RSL10/2.0.0//lib/release\libsyslib.a(rsl10_sys_power.o)
 .data          0x00000000        0x0 C:/Users/fg7fww/_Install/App/DemoBoards/RSL10/Packages_RSL10_2.0/ONSemiconductor/RSL10/2.0.0//lib/release\libsyslib.a(rsl10_sys_power.o)
 .bss           0x00000000        0x0 C:/Users/fg7fww/_Install/App/DemoBoards/RSL10/Packages_RSL10_2.0/ONSemiconductor/RSL10/2.0.0//lib/release\libsyslib.a(rsl10_sys_power.o)
 .text.Sys_Power_BandGapCalibratedConfig
                0x00000000       0x30 C:/Users/fg7fww/_Install/App/DemoBoards/RSL10/Packages_RSL10_2.0/ONSemiconductor/RSL10/2.0.0//lib/release\libsyslib.a(rsl10_sys_power.o)
 .text.Sys_Power_VDDPACalibratedConfig
                0x00000000       0x30 C:/Users/fg7fww/_Install/App/DemoBoards/RSL10/Packages_RSL10_2.0/ONSemiconductor/RSL10/2.0.0//lib/release\libsyslib.a(rsl10_sys_power.o)
 .text.Sys_Power_VDDCCalibratedConfig
                0x00000000       0x30 C:/Users/fg7fww/_Install/App/DemoBoards/RSL10/Packages_RSL10_2.0/ONSemiconductor/RSL10/2.0.0//lib/release\libsyslib.a(rsl10_sys_power.o)
 .text.Sys_Power_VDDCStandbyCalibratedConfig
                0x00000000       0x30 C:/Users/fg7fww/_Install/App/DemoBoards/RSL10/Packages_RSL10_2.0/ONSemiconductor/RSL10/2.0.0//lib/release\libsyslib.a(rsl10_sys_power.o)
 .text.Sys_Power_VDDMCalibratedConfig
                0x00000000       0x30 C:/Users/fg7fww/_Install/App/DemoBoards/RSL10/Packages_RSL10_2.0/ONSemiconductor/RSL10/2.0.0//lib/release\libsyslib.a(rsl10_sys_power.o)
 .text.Sys_Power_VDDMStandbyCalibratedConfig
                0x00000000       0x30 C:/Users/fg7fww/_Install/App/DemoBoards/RSL10/Packages_RSL10_2.0/ONSemiconductor/RSL10/2.0.0//lib/release\libsyslib.a(rsl10_sys_power.o)
 .text.Sys_Power_DCDCCalibratedConfig
                0x00000000       0x44 C:/Users/fg7fww/_Install/App/DemoBoards/RSL10/Packages_RSL10_2.0/ONSemiconductor/RSL10/2.0.0//lib/release\libsyslib.a(rsl10_sys_power.o)
 .group         0x00000000        0x8 C:/Users/fg7fww/_Install/App/DemoBoards/RSL10/Packages_RSL10_2.0/ONSemiconductor/RSL10/2.0.0//lib/ble_core/release\libweak_prf.a(weakprf.o)
 .text          0x00000000        0x0 C:/Users/fg7fww/_Install/App/DemoBoards/RSL10/Packages_RSL10_2.0/ONSemiconductor/RSL10/2.0.0//lib/ble_core/release\libweak_prf.a(weakprf.o)
 .data          0x00000000        0x0 C:/Users/fg7fww/_Install/App/DemoBoards/RSL10/Packages_RSL10_2.0/ONSemiconductor/RSL10/2.0.0//lib/ble_core/release\libweak_prf.a(weakprf.o)
 .bss           0x00000000        0x0 C:/Users/fg7fww/_Install/App/DemoBoards/RSL10/Packages_RSL10_2.0/ONSemiconductor/RSL10/2.0.0//lib/ble_core/release\libweak_prf.a(weakprf.o)
 .text.proxm_prf_itf_get
                0x00000000        0x4 C:/Users/fg7fww/_Install/App/DemoBoards/RSL10/Packages_RSL10_2.0/ONSemiconductor/RSL10/2.0.0//lib/ble_core/release\libweak_prf.a(weakprf.o)
 .text.proxr_prf_itf_get
                0x00000000        0x4 C:/Users/fg7fww/_Install/App/DemoBoards/RSL10/Packages_RSL10_2.0/ONSemiconductor/RSL10/2.0.0//lib/ble_core/release\libweak_prf.a(weakprf.o)
 .text.bass_prf_itf_get
                0x00000000        0x4 C:/Users/fg7fww/_Install/App/DemoBoards/RSL10/Packages_RSL10_2.0/ONSemiconductor/RSL10/2.0.0//lib/ble_core/release\libweak_prf.a(weakprf.o)
 .text.ipss_prf_itf_get
                0x00000000        0x4 C:/Users/fg7fww/_Install/App/DemoBoards/RSL10/Packages_RSL10_2.0/ONSemiconductor/RSL10/2.0.0//lib/ble_core/release\libweak_prf.a(weakprf.o)
 .text.ipsc_prf_itf_get
                0x00000000        0x4 C:/Users/fg7fww/_Install/App/DemoBoards/RSL10/Packages_RSL10_2.0/ONSemiconductor/RSL10/2.0.0//lib/ble_core/release\libweak_prf.a(weakprf.o)
 .text.envs_prf_itf_get
                0x00000000        0x4 C:/Users/fg7fww/_Install/App/DemoBoards/RSL10/Packages_RSL10_2.0/ONSemiconductor/RSL10/2.0.0//lib/ble_core/release\libweak_prf.a(weakprf.o)
 .text.envc_prf_itf_get
                0x00000000        0x4 C:/Users/fg7fww/_Install/App/DemoBoards/RSL10/Packages_RSL10_2.0/ONSemiconductor/RSL10/2.0.0//lib/ble_core/release\libweak_prf.a(weakprf.o)
 .text.wscs_prf_itf_get
                0x00000000        0x4 C:/Users/fg7fww/_Install/App/DemoBoards/RSL10/Packages_RSL10_2.0/ONSemiconductor/RSL10/2.0.0//lib/ble_core/release\libweak_prf.a(weakprf.o)
 .text.wscc_prf_itf_get
                0x00000000        0x4 C:/Users/fg7fww/_Install/App/DemoBoards/RSL10/Packages_RSL10_2.0/ONSemiconductor/RSL10/2.0.0//lib/ble_core/release\libweak_prf.a(weakprf.o)
 .text.bcss_prf_itf_get
                0x00000000        0x4 C:/Users/fg7fww/_Install/App/DemoBoards/RSL10/Packages_RSL10_2.0/ONSemiconductor/RSL10/2.0.0//lib/ble_core/release\libweak_prf.a(weakprf.o)
 .text.bcsc_prf_itf_get
                0x00000000        0x4 C:/Users/fg7fww/_Install/App/DemoBoards/RSL10/Packages_RSL10_2.0/ONSemiconductor/RSL10/2.0.0//lib/ble_core/release\libweak_prf.a(weakprf.o)
 .text.plxs_prf_itf_get
                0x00000000        0x4 C:/Users/fg7fww/_Install/App/DemoBoards/RSL10/Packages_RSL10_2.0/ONSemiconductor/RSL10/2.0.0//lib/ble_core/release\libweak_prf.a(weakprf.o)
 .text.plxc_prf_itf_get
                0x00000000        0x4 C:/Users/fg7fww/_Install/App/DemoBoards/RSL10/Packages_RSL10_2.0/ONSemiconductor/RSL10/2.0.0//lib/ble_core/release\libweak_prf.a(weakprf.o)
 .text.am0_has_prf_itf_get
                0x00000000        0x4 C:/Users/fg7fww/_Install/App/DemoBoards/RSL10/Packages_RSL10_2.0/ONSemiconductor/RSL10/2.0.0//lib/ble_core/release\libweak_prf.a(weakprf.o)
 .text.udss_prf_itf_get
                0x00000000        0x4 C:/Users/fg7fww/_Install/App/DemoBoards/RSL10/Packages_RSL10_2.0/ONSemiconductor/RSL10/2.0.0//lib/ble_core/release\libweak_prf.a(weakprf.o)
 .text.udsc_prf_itf_get
                0x00000000        0x4 C:/Users/fg7fww/_Install/App/DemoBoards/RSL10/Packages_RSL10_2.0/ONSemiconductor/RSL10/2.0.0//lib/ble_core/release\libweak_prf.a(weakprf.o)
 .data          0x00000000        0x0 c:/program files (x86)/on semiconductor/rsl10 sdk/arm_tools/bin/../lib/gcc/arm-none-eabi/6.3.1/thumb/v7-m\libgcc.a(_arm_addsubdf3.o)
 .bss           0x00000000        0x0 c:/program files (x86)/on semiconductor/rsl10 sdk/arm_tools/bin/../lib/gcc/arm-none-eabi/6.3.1/thumb/v7-m\libgcc.a(_arm_addsubdf3.o)
 .data          0x00000000        0x0 c:/program files (x86)/on semiconductor/rsl10 sdk/arm_tools/bin/../lib/gcc/arm-none-eabi/6.3.1/thumb/v7-m\libgcc.a(_arm_muldivdf3.o)
 .bss           0x00000000        0x0 c:/program files (x86)/on semiconductor/rsl10 sdk/arm_tools/bin/../lib/gcc/arm-none-eabi/6.3.1/thumb/v7-m\libgcc.a(_arm_muldivdf3.o)
 .data          0x00000000        0x0 c:/program files (x86)/on semiconductor/rsl10 sdk/arm_tools/bin/../lib/gcc/arm-none-eabi/6.3.1/thumb/v7-m\libgcc.a(_arm_fixdfsi.o)
 .bss           0x00000000        0x0 c:/program files (x86)/on semiconductor/rsl10 sdk/arm_tools/bin/../lib/gcc/arm-none-eabi/6.3.1/thumb/v7-m\libgcc.a(_arm_fixdfsi.o)
 .data          0x00000000        0x0 c:/program files (x86)/on semiconductor/rsl10 sdk/arm_tools/bin/../lib/gcc/arm-none-eabi/6.3.1/thumb/v7-m\libgcc.a(_arm_fixunsdfsi.o)
 .bss           0x00000000        0x0 c:/program files (x86)/on semiconductor/rsl10 sdk/arm_tools/bin/../lib/gcc/arm-none-eabi/6.3.1/thumb/v7-m\libgcc.a(_arm_fixunsdfsi.o)
 .data          0x00000000        0x0 c:/program files (x86)/on semiconductor/rsl10 sdk/arm_tools/bin/../lib/gcc/arm-none-eabi/6.3.1/thumb/v7-m\libgcc.a(_arm_truncdfsf2.o)
 .bss           0x00000000        0x0 c:/program files (x86)/on semiconductor/rsl10 sdk/arm_tools/bin/../lib/gcc/arm-none-eabi/6.3.1/thumb/v7-m\libgcc.a(_arm_truncdfsf2.o)
 .text          0x00000000      0x2a0 c:/program files (x86)/on semiconductor/rsl10 sdk/arm_tools/bin/../lib/gcc/arm-none-eabi/6.3.1/thumb/v7-m\libgcc.a(_arm_muldivsf3.o)
 .data          0x00000000        0x0 c:/program files (x86)/on semiconductor/rsl10 sdk/arm_tools/bin/../lib/gcc/arm-none-eabi/6.3.1/thumb/v7-m\libgcc.a(_arm_muldivsf3.o)
 .bss           0x00000000        0x0 c:/program files (x86)/on semiconductor/rsl10 sdk/arm_tools/bin/../lib/gcc/arm-none-eabi/6.3.1/thumb/v7-m\libgcc.a(_arm_muldivsf3.o)
 .debug_frame   0x00000000       0x38 c:/program files (x86)/on semiconductor/rsl10 sdk/arm_tools/bin/../lib/gcc/arm-none-eabi/6.3.1/thumb/v7-m\libgcc.a(_arm_muldivsf3.o)
 .ARM.attributes
                0x00000000       0x1d c:/program files (x86)/on semiconductor/rsl10 sdk/arm_tools/bin/../lib/gcc/arm-none-eabi/6.3.1/thumb/v7-m\libgcc.a(_arm_muldivsf3.o)
 .data          0x00000000        0x0 c:/program files (x86)/on semiconductor/rsl10 sdk/arm_tools/bin/../lib/gcc/arm-none-eabi/6.3.1/thumb/v7-m\libgcc.a(_arm_fixsfsi.o)
 .bss           0x00000000        0x0 c:/program files (x86)/on semiconductor/rsl10 sdk/arm_tools/bin/../lib/gcc/arm-none-eabi/6.3.1/thumb/v7-m\libgcc.a(_arm_fixsfsi.o)
 .text          0x00000000        0x0 c:/program files (x86)/on semiconductor/rsl10 sdk/arm_tools/bin/../lib/gcc/arm-none-eabi/6.3.1/../../../../arm-none-eabi/lib/thumb/v7-m\libg_nano.a(lib_a-errno.o)
 .data          0x00000000        0x0 c:/program files (x86)/on semiconductor/rsl10 sdk/arm_tools/bin/../lib/gcc/arm-none-eabi/6.3.1/../../../../arm-none-eabi/lib/thumb/v7-m\libg_nano.a(lib_a-errno.o)
 .bss           0x00000000        0x0 c:/program files (x86)/on semiconductor/rsl10 sdk/arm_tools/bin/../lib/gcc/arm-none-eabi/6.3.1/../../../../arm-none-eabi/lib/thumb/v7-m\libg_nano.a(lib_a-errno.o)
 .text          0x00000000        0x0 c:/program files (x86)/on semiconductor/rsl10 sdk/arm_tools/bin/../lib/gcc/arm-none-eabi/6.3.1/../../../../arm-none-eabi/lib/thumb/v7-m\libg_nano.a(lib_a-impure.o)
 .data          0x00000000        0x0 c:/program files (x86)/on semiconductor/rsl10 sdk/arm_tools/bin/../lib/gcc/arm-none-eabi/6.3.1/../../../../arm-none-eabi/lib/thumb/v7-m\libg_nano.a(lib_a-impure.o)
 .bss           0x00000000        0x0 c:/program files (x86)/on semiconductor/rsl10 sdk/arm_tools/bin/../lib/gcc/arm-none-eabi/6.3.1/../../../../arm-none-eabi/lib/thumb/v7-m\libg_nano.a(lib_a-impure.o)
 .rodata._global_impure_ptr
                0x00000000        0x4 c:/program files (x86)/on semiconductor/rsl10 sdk/arm_tools/bin/../lib/gcc/arm-none-eabi/6.3.1/../../../../arm-none-eabi/lib/thumb/v7-m\libg_nano.a(lib_a-impure.o)
 .text          0x00000000        0x0 c:/program files (x86)/on semiconductor/rsl10 sdk/arm_tools/bin/../lib/gcc/arm-none-eabi/6.3.1/../../../../arm-none-eabi/lib/thumb/v7-m\libg_nano.a(lib_a-malloc.o)
 .data          0x00000000        0x0 c:/program files (x86)/on semiconductor/rsl10 sdk/arm_tools/bin/../lib/gcc/arm-none-eabi/6.3.1/../../../../arm-none-eabi/lib/thumb/v7-m\libg_nano.a(lib_a-malloc.o)
 .bss           0x00000000        0x0 c:/program files (x86)/on semiconductor/rsl10 sdk/arm_tools/bin/../lib/gcc/arm-none-eabi/6.3.1/../../../../arm-none-eabi/lib/thumb/v7-m\libg_nano.a(lib_a-malloc.o)
 .text          0x00000000        0x0 c:/program files (x86)/on semiconductor/rsl10 sdk/arm_tools/bin/../lib/gcc/arm-none-eabi/6.3.1/../../../../arm-none-eabi/lib/thumb/v7-m\libg_nano.a(lib_a-memcmp.o)
 .data          0x00000000        0x0 c:/program files (x86)/on semiconductor/rsl10 sdk/arm_tools/bin/../lib/gcc/arm-none-eabi/6.3.1/../../../../arm-none-eabi/lib/thumb/v7-m\libg_nano.a(lib_a-memcmp.o)
 .bss           0x00000000        0x0 c:/program files (x86)/on semiconductor/rsl10 sdk/arm_tools/bin/../lib/gcc/arm-none-eabi/6.3.1/../../../../arm-none-eabi/lib/thumb/v7-m\libg_nano.a(lib_a-memcmp.o)
 .text          0x00000000        0x0 c:/program files (x86)/on semiconductor/rsl10 sdk/arm_tools/bin/../lib/gcc/arm-none-eabi/6.3.1/../../../../arm-none-eabi/lib/thumb/v7-m\libg_nano.a(lib_a-memcpy-stub.o)
 .data          0x00000000        0x0 c:/program files (x86)/on semiconductor/rsl10 sdk/arm_tools/bin/../lib/gcc/arm-none-eabi/6.3.1/../../../../arm-none-eabi/lib/thumb/v7-m\libg_nano.a(lib_a-memcpy-stub.o)
 .bss           0x00000000        0x0 c:/program files (x86)/on semiconductor/rsl10 sdk/arm_tools/bin/../lib/gcc/arm-none-eabi/6.3.1/../../../../arm-none-eabi/lib/thumb/v7-m\libg_nano.a(lib_a-memcpy-stub.o)
 .text          0x00000000        0x0 c:/program files (x86)/on semiconductor/rsl10 sdk/arm_tools/bin/../lib/gcc/arm-none-eabi/6.3.1/../../../../arm-none-eabi/lib/thumb/v7-m\libg_nano.a(lib_a-memset.o)
 .data          0x00000000        0x0 c:/program files (x86)/on semiconductor/rsl10 sdk/arm_tools/bin/../lib/gcc/arm-none-eabi/6.3.1/../../../../arm-none-eabi/lib/thumb/v7-m\libg_nano.a(lib_a-memset.o)
 .bss           0x00000000        0x0 c:/program files (x86)/on semiconductor/rsl10 sdk/arm_tools/bin/../lib/gcc/arm-none-eabi/6.3.1/../../../../arm-none-eabi/lib/thumb/v7-m\libg_nano.a(lib_a-memset.o)
 .text          0x00000000        0x0 c:/program files (x86)/on semiconductor/rsl10 sdk/arm_tools/bin/../lib/gcc/arm-none-eabi/6.3.1/../../../../arm-none-eabi/lib/thumb/v7-m\libg_nano.a(lib_a-nano-freer.o)
 .data          0x00000000        0x0 c:/program files (x86)/on semiconductor/rsl10 sdk/arm_tools/bin/../lib/gcc/arm-none-eabi/6.3.1/../../../../arm-none-eabi/lib/thumb/v7-m\libg_nano.a(lib_a-nano-freer.o)
 .bss           0x00000000        0x0 c:/program files (x86)/on semiconductor/rsl10 sdk/arm_tools/bin/../lib/gcc/arm-none-eabi/6.3.1/../../../../arm-none-eabi/lib/thumb/v7-m\libg_nano.a(lib_a-nano-freer.o)
 .text          0x00000000        0x0 c:/program files (x86)/on semiconductor/rsl10 sdk/arm_tools/bin/../lib/gcc/arm-none-eabi/6.3.1/../../../../arm-none-eabi/lib/thumb/v7-m\libg_nano.a(lib_a-nano-mallocr.o)
 .data          0x00000000        0x0 c:/program files (x86)/on semiconductor/rsl10 sdk/arm_tools/bin/../lib/gcc/arm-none-eabi/6.3.1/../../../../arm-none-eabi/lib/thumb/v7-m\libg_nano.a(lib_a-nano-mallocr.o)
 .bss           0x00000000        0x0 c:/program files (x86)/on semiconductor/rsl10 sdk/arm_tools/bin/../lib/gcc/arm-none-eabi/6.3.1/../../../../arm-none-eabi/lib/thumb/v7-m\libg_nano.a(lib_a-nano-mallocr.o)
 .text          0x00000000        0x0 c:/program files (x86)/on semiconductor/rsl10 sdk/arm_tools/bin/../lib/gcc/arm-none-eabi/6.3.1/../../../../arm-none-eabi/lib/thumb/v7-m\libg_nano.a(lib_a-rand.o)
 .data          0x00000000        0x0 c:/program files (x86)/on semiconductor/rsl10 sdk/arm_tools/bin/../lib/gcc/arm-none-eabi/6.3.1/../../../../arm-none-eabi/lib/thumb/v7-m\libg_nano.a(lib_a-rand.o)
 .bss           0x00000000        0x0 c:/program files (x86)/on semiconductor/rsl10 sdk/arm_tools/bin/../lib/gcc/arm-none-eabi/6.3.1/../../../../arm-none-eabi/lib/thumb/v7-m\libg_nano.a(lib_a-rand.o)
 .text          0x00000000        0x0 c:/program files (x86)/on semiconductor/rsl10 sdk/arm_tools/bin/../lib/gcc/arm-none-eabi/6.3.1/../../../../arm-none-eabi/lib/thumb/v7-m\libg_nano.a(lib_a-sbrkr.o)
 .data          0x00000000        0x0 c:/program files (x86)/on semiconductor/rsl10 sdk/arm_tools/bin/../lib/gcc/arm-none-eabi/6.3.1/../../../../arm-none-eabi/lib/thumb/v7-m\libg_nano.a(lib_a-sbrkr.o)
 .bss           0x00000000        0x0 c:/program files (x86)/on semiconductor/rsl10 sdk/arm_tools/bin/../lib/gcc/arm-none-eabi/6.3.1/../../../../arm-none-eabi/lib/thumb/v7-m\libg_nano.a(lib_a-sbrkr.o)
 .text          0x00000000        0x0 c:/program files (x86)/on semiconductor/rsl10 sdk/arm_tools/bin/../lib/gcc/arm-none-eabi/6.3.1/../../../../arm-none-eabi/lib/thumb/v7-m\libg_nano.a(lib_a-mlock.o)
 .data          0x00000000        0x0 c:/program files (x86)/on semiconductor/rsl10 sdk/arm_tools/bin/../lib/gcc/arm-none-eabi/6.3.1/../../../../arm-none-eabi/lib/thumb/v7-m\libg_nano.a(lib_a-mlock.o)
 .bss           0x00000000        0x0 c:/program files (x86)/on semiconductor/rsl10 sdk/arm_tools/bin/../lib/gcc/arm-none-eabi/6.3.1/../../../../arm-none-eabi/lib/thumb/v7-m\libg_nano.a(lib_a-mlock.o)
 .text          0x00000000        0x0 c:/program files (x86)/on semiconductor/rsl10 sdk/arm_tools/bin/../lib/gcc/arm-none-eabi/6.3.1/../../../../arm-none-eabi/lib/thumb/v7-m\libg_nano.a(lib_a-reent.o)
 .data          0x00000000        0x0 c:/program files (x86)/on semiconductor/rsl10 sdk/arm_tools/bin/../lib/gcc/arm-none-eabi/6.3.1/../../../../arm-none-eabi/lib/thumb/v7-m\libg_nano.a(lib_a-reent.o)
 .bss           0x00000000        0x0 c:/program files (x86)/on semiconductor/rsl10 sdk/arm_tools/bin/../lib/gcc/arm-none-eabi/6.3.1/../../../../arm-none-eabi/lib/thumb/v7-m\libg_nano.a(lib_a-reent.o)
 .text.cleanup_glue
                0x00000000       0x1a c:/program files (x86)/on semiconductor/rsl10 sdk/arm_tools/bin/../lib/gcc/arm-none-eabi/6.3.1/../../../../arm-none-eabi/lib/thumb/v7-m\libg_nano.a(lib_a-reent.o)
 .text._reclaim_reent
                0x00000000       0xb8 c:/program files (x86)/on semiconductor/rsl10 sdk/arm_tools/bin/../lib/gcc/arm-none-eabi/6.3.1/../../../../arm-none-eabi/lib/thumb/v7-m\libg_nano.a(lib_a-reent.o)

Memory Configuration

Name             Origin             Length             Attributes
ROM              0x00000000         0x00001000         r
FLASH            0x00100000         0x0005f000         xrw
PRAM             0x00200000         0x00008000         xrw
DRAM             0x20000000         0x00006000         xrw
DRAM_DSP         0x20006000         0x0000c000         xrw
DRAM_BB          0x20012000         0x00004000         xrw
*default*        0x00000000         0xffffffff

Linker script and memory map

LOAD ./code/app_init.o
LOAD ./code/app_process.o
LOAD ./code/ble_bass.o
LOAD ./code/ble_custom.o
LOAD ./code/ble_std.o
LOAD ./code/spi_interface.o
LOAD ./app.o
LOAD C:/Users/fg7fww/_Install/App/DemoBoards/RSL10/Packages_RSL10_2.0/ONSemiconductor/RSL10/2.0.0//lib/ble_core/release\libblelib.a
LOAD C:/Users/fg7fww/_Install/App/DemoBoards/RSL10/Packages_RSL10_2.0/ONSemiconductor/RSL10/2.0.0//lib/ble_core/release\libkelib.a
LOAD C:/Users/fg7fww/_Install/App/DemoBoards/RSL10/Packages_RSL10_2.0/ONSemiconductor/RSL10/2.0.0//lib/ble_profiles/release\libbass.a
LOAD C:/Users/fg7fww/_Install/App/DemoBoards/RSL10/Packages_RSL10_2.0/ONSemiconductor/RSL10/2.0.0//lib/release\libcmsis.a
LOAD C:/Users/fg7fww/_Install/App/DemoBoards/RSL10/Packages_RSL10_2.0/ONSemiconductor/RSL10/2.0.0//lib/release\libsyslib.a
LOAD C:/Users/fg7fww/_Install/App/DemoBoards/RSL10/Packages_RSL10_2.0/ONSemiconductor/RSL10/2.0.0//lib/ble_core/release\libweak_prf.a
START GROUP
LOAD c:/program files (x86)/on semiconductor/rsl10 sdk/arm_tools/bin/../lib/gcc/arm-none-eabi/6.3.1/thumb/v7-m\libgcc.a
LOAD c:/program files (x86)/on semiconductor/rsl10 sdk/arm_tools/bin/../lib/gcc/arm-none-eabi/6.3.1/../../../../arm-none-eabi/lib/thumb/v7-m\libg_nano.a
LOAD c:/program files (x86)/on semiconductor/rsl10 sdk/arm_tools/bin/../lib/gcc/arm-none-eabi/6.3.1/../../../../arm-none-eabi/lib/thumb/v7-m\libc_nano.a
END GROUP
START GROUP
LOAD c:/program files (x86)/on semiconductor/rsl10 sdk/arm_tools/bin/../lib/gcc/arm-none-eabi/6.3.1/thumb/v7-m\libgcc.a
LOAD c:/program files (x86)/on semiconductor/rsl10 sdk/arm_tools/bin/../lib/gcc/arm-none-eabi/6.3.1/../../../../arm-none-eabi/lib/thumb/v7-m\libc_nano.a
END GROUP
                0x20006000                __stack = (ORIGIN (DRAM) + LENGTH (DRAM))
                [!provide]                PROVIDE (__stack, __stack)
                0x00000400                __Main_Stack_Size = 0x400
                [!provide]                PROVIDE (_Main_Stack_Size, __Main_Stack_Size)
                0x20005c00                __Main_Stack_Limit = (__stack - __Main_Stack_Size)
                [!provide]                PROVIDE (_Main_Stack_Limit, __Main_Stack_Limit)
                0x200037a8                PROVIDE (__Heap_Begin__, __noinit_end__)
                0x20005c00                PROVIDE (__Heap_Limit__, (__stack - __Main_Stack_Size))
                0xe000ed08                __VTOR = 0xe000ed08

.text           0x00100000    0x20444
                0x00100000                . = ALIGN (0x4)
 *(.interrupt_vector)
 .interrupt_vector
                0x00100000      0x164 C:/Users/fg7fww/_Install/App/DemoBoards/RSL10/Packages_RSL10_2.0/ONSemiconductor/RSL10/2.0.0//lib/release\libcmsis.a(startup_rsl10.o)
                0x00100000                ISR_Vector_Table
 *(.reset)
 .reset         0x00100164       0x18 C:/Users/fg7fww/_Install/App/DemoBoards/RSL10/Packages_RSL10_2.0/ONSemiconductor/RSL10/2.0.0//lib/release\libcmsis.a(startup_rsl10.o)
                0x00100164                Reset_Handler
                0x0010017c                . = ALIGN (0x4)
                0x0010017c                PROVIDE (__preinit_array_start__, .)
 *(.preinit_array_sysinit .preinit_array_sysinit.*)
 *(.preinit_array_platform .preinit_array_platform.*)
 *(.preinit_array .preinit_array.*)
                0x0010017c                PROVIDE (__preinit_array_end__, .)
                0x0010017c                . = ALIGN (0x4)
                0x0010017c                PROVIDE (__init_array_start__, .)
 *(SORT(.init_array.*))
 *(.init_array)
                0x0010017c                PROVIDE (__init_array_end__, .)
                0x0010017c                . = ALIGN (0x4)
 *(.text .text.*)
 .text.App_Env_Initialize
                0x0010017c       0x28 ./code/app_init.o
                0x0010017c                App_Env_Initialize
 .text.App_Initialize
                0x001001a4      0x130 ./code/app_init.o
                0x001001a4                App_Initialize
 .text.Msg_Handler
                0x001002d4        0x4 ./code/app_process.o
                0x001002d4                Msg_Handler
 .text.APP_Timer
                0x001002d8       0xc4 ./code/app_process.o
                0x001002d8                APP_Timer
 .text.LED_Timer
                0x0010039c       0xf0 ./code/app_process.o
                0x0010039c                LED_Timer
 .text.Bass_Env_Initialize
                0x0010048c       0x1c ./code/ble_bass.o
                0x0010048c                Bass_Env_Initialize
 .text.Batt_ServiceAdd_Server
                0x001004a8       0x3c ./code/ble_bass.o
                0x001004a8                Batt_ServiceAdd_Server
 .text.Batt_ServiceEnable_Server
                0x001004e4       0x2a ./code/ble_bass.o
                0x001004e4                Batt_ServiceEnable_Server
 .text.Batt_LevelUpdateSend
                0x0010050e       0x2c ./code/ble_bass.o
                0x0010050e                Batt_LevelUpdateSend
 *fill*         0x0010053a        0x2 
 .text.Batt_LevelNtfCfgInd
                0x0010053c       0x20 ./code/ble_bass.o
                0x0010053c                Batt_LevelNtfCfgInd
 .text.Batt_EnableRsp_Server
                0x0010055c       0x28 ./code/ble_bass.o
                0x0010055c                Batt_EnableRsp_Server
 .text.CustomService_Env_Initialize
                0x00100584       0x2c ./code/ble_custom.o
                0x00100584                CustomService_Env_Initialize
 .text.CustomService_ServiceAdd
                0x001005b0       0xa0 ./code/ble_custom.o
                0x001005b0                CustomService_ServiceAdd
 .text.GATTM_AddSvcRsp
                0x00100650       0x40 ./code/ble_custom.o
                0x00100650                GATTM_AddSvcRsp
 .text.GATTC_ReadReqInd
                0x00100690      0x14c ./code/ble_custom.o
                0x00100690                GATTC_ReadReqInd
 .text.GATTC_WriteReqInd
                0x001007dc       0xfc ./code/ble_custom.o
                0x001007dc                GATTC_WriteReqInd
 .text.CustomService_SendNotification
                0x001008d8       0x80 ./code/ble_custom.o
                0x001008d8                CustomService_SendNotification
 .text.GATTC_CmpEvt
                0x00100958       0x34 ./code/ble_custom.o
                0x00100958                GATTC_CmpEvt
 .text.GATTC_AttInfoReqInd
                0x0010098c       0x6c ./code/ble_custom.o
                0x0010098c                GATTC_AttInfoReqInd
 .text.Device_Param_Prepare
                0x001009f8       0x10 ./code/ble_std.o
                0x001009f8                Device_Param_Prepare
 .text.Find_Connected_Device_Index
                0x00100a08       0x30 ./code/ble_std.o
                0x00100a08                Find_Connected_Device_Index
 .text.Connected_Peer_Num
                0x00100a38       0x24 ./code/ble_std.o
                0x00100a38                Connected_Peer_Num
 .text.BLE_Initialize
                0x00100a5c      0x11c ./code/ble_std.o
                0x00100a5c                BLE_Initialize
 .text.Service_Add
                0x00100b78       0x28 ./code/ble_std.o
                0x00100b78                Service_Add
 .text.Advertising_Start
                0x00100ba0       0xe8 ./code/ble_std.o
                0x00100ba0                Advertising_Start
 .text.GAPM_ProfileAddedInd
                0x00100c88       0x34 ./code/ble_std.o
                0x00100c88                GAPM_ProfileAddedInd
 .text.GAPM_CmpEvt
                0x00100cbc       0xa0 ./code/ble_std.o
                0x00100cbc                GAPM_CmpEvt
 .text.GAPC_GetDevInfoReqInd
                0x00100d5c       0x68 ./code/ble_std.o
                0x00100d5c                GAPC_GetDevInfoReqInd
 .text.GAPC_CmpEvt
                0x00100dc4        0x4 ./code/ble_std.o
                0x00100dc4                GAPC_CmpEvt
 .text.GAPC_ParamUpdatedInd
                0x00100dc8       0x2c ./code/ble_std.o
                0x00100dc8                GAPC_ParamUpdatedInd
 .text.GAPC_ParamUpdateReqInd
                0x00100df4       0x48 ./code/ble_std.o
                0x00100df4                GAPC_ParamUpdateReqInd
 .text.Service_Enable
                0x00100e3c       0x44 ./code/ble_std.o
                0x00100e3c                Service_Enable
 .text.BLE_SetServiceState
                0x00100e80       0x48 ./code/ble_std.o
                0x00100e80                BLE_SetServiceState
 .text.GAPC_DisconnectInd
                0x00100ec8       0x28 ./code/ble_std.o
                0x00100ec8                GAPC_DisconnectInd
 .text.Send_Connection_Confirmation
                0x00100ef0       0x3c ./code/ble_std.o
                0x00100ef0                Send_Connection_Confirmation
 .text.GAPC_ConnectionReqInd
                0x00100f2c       0x54 ./code/ble_std.o
                0x00100f2c                GAPC_ConnectionReqInd
 .text.SPI_IF_GetRecvByte
                0x00100f80       0x38 ./code/spi_interface.o
 .text.SPI_IF_Init
                0x00100fb8       0x88 ./code/spi_interface.o
                0x00100fb8                SPI_IF_Init
 .text.SPI_IF_MessagePending
                0x00101040        0xc ./code/spi_interface.o
                0x00101040                SPI_IF_MessagePending
 .text.SPI_IF_SetMessage
                0x0010104c       0x44 ./code/spi_interface.o
                0x0010104c                SPI_IF_SetMessage
 .text.SPI_IF_GetMessage
                0x00101090       0x38 ./code/spi_interface.o
                0x00101090                SPI_IF_GetMessage
 .text.DIO0_IRQHandler
                0x001010c8       0x2c ./code/spi_interface.o
                0x001010c8                DIO0_IRQHandler
 .text.SPI1_RX_IRQHandler
                0x001010f4      0x114 ./code/spi_interface.o
                0x001010f4                SPI1_RX_IRQHandler
 .text.main     0x00101208      0x174 ./app.o
                0x00101208                main
 .text.BLE_Reset
                0x0010137c       0x38 C:/Users/fg7fww/_Install/App/DemoBoards/RSL10/Packages_RSL10_2.0/ONSemiconductor/RSL10/2.0.0//lib/ble_core/release\libblelib.a(rwip.o)
                0x0010137c                BLE_Reset
 .text.rwip_reset
                0x001013b4       0x34 C:/Users/fg7fww/_Install/App/DemoBoards/RSL10/Packages_RSL10_2.0/ONSemiconductor/RSL10/2.0.0//lib/ble_core/release\libblelib.a(rwip.o)
                0x001013b4                rwip_reset
 .text.rwip_prevent_sleep_set
                0x001013e8       0x14 C:/Users/fg7fww/_Install/App/DemoBoards/RSL10/Packages_RSL10_2.0/ONSemiconductor/RSL10/2.0.0//lib/ble_core/release\libblelib.a(rwip.o)
                0x001013e8                rwip_prevent_sleep_set
 .text.rwip_wakeup
                0x001013fc       0x10 C:/Users/fg7fww/_Install/App/DemoBoards/RSL10/Packages_RSL10_2.0/ONSemiconductor/RSL10/2.0.0//lib/ble_core/release\libblelib.a(rwip.o)
                0x001013fc                rwip_wakeup
 .text.rwip_prevent_sleep_clear
                0x0010140c       0x14 C:/Users/fg7fww/_Install/App/DemoBoards/RSL10/Packages_RSL10_2.0/ONSemiconductor/RSL10/2.0.0//lib/ble_core/release\libblelib.a(rwip.o)
                0x0010140c                rwip_prevent_sleep_clear
 .text.rwip_wakeup_end
                0x00101420       0x24 C:/Users/fg7fww/_Install/App/DemoBoards/RSL10/Packages_RSL10_2.0/ONSemiconductor/RSL10/2.0.0//lib/ble_core/release\libblelib.a(rwip.o)
                0x00101420                rwip_wakeup_end
 .text.rwip_sleep_lpcycles_2_us
                0x00101444       0x4c C:/Users/fg7fww/_Install/App/DemoBoards/RSL10/Packages_RSL10_2.0/ONSemiconductor/RSL10/2.0.0//lib/ble_core/release\libblelib.a(rwip.o)
                0x00101444                rwip_sleep_lpcycles_2_us
 .text.rwip_us_2_lpcycles
                0x00101490       0x24 C:/Users/fg7fww/_Install/App/DemoBoards/RSL10/Packages_RSL10_2.0/ONSemiconductor/RSL10/2.0.0//lib/ble_core/release\libblelib.a(rwip.o)
                0x00101490                rwip_us_2_lpcycles
 .text.rwip_wakeup_delay_set
                0x001014b4       0x2c C:/Users/fg7fww/_Install/App/DemoBoards/RSL10/Packages_RSL10_2.0/ONSemiconductor/RSL10/2.0.0//lib/ble_core/release\libblelib.a(rwip.o)
                0x001014b4                rwip_wakeup_delay_set
 .text.BLE_InitNoTL
                0x001014e0       0x44 C:/Users/fg7fww/_Install/App/DemoBoards/RSL10/Packages_RSL10_2.0/ONSemiconductor/RSL10/2.0.0//lib/ble_core/release\libblelib.a(rwip.o)
                0x001014e0                BLE_InitNoTL
 .text.rwble_init
                0x00101524       0x28 C:/Users/fg7fww/_Install/App/DemoBoards/RSL10/Packages_RSL10_2.0/ONSemiconductor/RSL10/2.0.0//lib/ble_core/release\libblelib.a(rwble.o)
                0x00101524                rwble_init
 .text.rwble_reset
                0x0010154c       0x5c C:/Users/fg7fww/_Install/App/DemoBoards/RSL10/Packages_RSL10_2.0/ONSemiconductor/RSL10/2.0.0//lib/ble_core/release\libblelib.a(rwble.o)
                0x0010154c                rwble_reset
 .text.rwble_isr
                0x001015a8       0xb8 C:/Users/fg7fww/_Install/App/DemoBoards/RSL10/Packages_RSL10_2.0/ONSemiconductor/RSL10/2.0.0//lib/ble_core/release\libblelib.a(rwble.o)
                0x001015a8                BLE_CSCNT_IRQHandler
                0x001015a8                BLE_SW_IRQHandler
                0x001015a8                BLE_AUDIO0_IRQHandler
                0x001015a8                BLE_SLP_IRQHandler
                0x001015a8                BLE_RX_IRQHandler
                0x001015a8                rwble_isr
                0x001015a8                BLE_AUDIO2_IRQHandler
                0x001015a8                BLE_AUDIO1_IRQHandler
                0x001015a8                BLE_ERROR_IRQHandler
                0x001015a8                BLE_EVENT_IRQHandler
                0x001015a8                BLE_CRYPT_IRQHandler
                0x001015a8                BLE_FINETGTIM_IRQHandler
 .text.rf_atl_spi_tf
                0x00101660       0x24 C:/Users/fg7fww/_Install/App/DemoBoards/RSL10/Packages_RSL10_2.0/ONSemiconductor/RSL10/2.0.0//lib/ble_core/release\libblelib.a(rf_atlas.o)
 .text.rf_atl_reg_rd
                0x00101684       0x2c C:/Users/fg7fww/_Install/App/DemoBoards/RSL10/Packages_RSL10_2.0/ONSemiconductor/RSL10/2.0.0//lib/ble_core/release\libblelib.a(rf_atlas.o)
 .text.rf_reset
                0x001016b0        0x2 C:/Users/fg7fww/_Install/App/DemoBoards/RSL10/Packages_RSL10_2.0/ONSemiconductor/RSL10/2.0.0//lib/ble_core/release\libblelib.a(rf_atlas.o)
 .text.rf_force_agc_enable
                0x001016b2        0x2 C:/Users/fg7fww/_Install/App/DemoBoards/RSL10/Packages_RSL10_2.0/ONSemiconductor/RSL10/2.0.0//lib/ble_core/release\libblelib.a(rf_atlas.o)
 .text.rf_txpwr_dbm_get
                0x001016b4        0x4 C:/Users/fg7fww/_Install/App/DemoBoards/RSL10/Packages_RSL10_2.0/ONSemiconductor/RSL10/2.0.0//lib/ble_core/release\libblelib.a(rf_atlas.o)
 .text.rf_sleep
                0x001016b8       0x10 C:/Users/fg7fww/_Install/App/DemoBoards/RSL10/Packages_RSL10_2.0/ONSemiconductor/RSL10/2.0.0//lib/ble_core/release\libblelib.a(rf_atlas.o)
 .text.rf_rssi_convert
                0x001016c8       0x34 C:/Users/fg7fww/_Install/App/DemoBoards/RSL10/Packages_RSL10_2.0/ONSemiconductor/RSL10/2.0.0//lib/ble_core/release\libblelib.a(rf_atlas.o)
 .text.rf_atl_reg_burst_wr
                0x001016fc       0x3c C:/Users/fg7fww/_Install/App/DemoBoards/RSL10/Packages_RSL10_2.0/ONSemiconductor/RSL10/2.0.0//lib/ble_core/release\libblelib.a(rf_atlas.o)
 .text.rf_atl_reg_wr
                0x00101738       0x24 C:/Users/fg7fww/_Install/App/DemoBoards/RSL10/Packages_RSL10_2.0/ONSemiconductor/RSL10/2.0.0//lib/ble_core/release\libblelib.a(rf_atlas.o)
 .text.rf_init  0x0010175c      0x474 C:/Users/fg7fww/_Install/App/DemoBoards/RSL10/Packages_RSL10_2.0/ONSemiconductor/RSL10/2.0.0//lib/ble_core/release\libblelib.a(rf_atlas.o)
                0x0010175c                rf_init
 .text.prf_itf_get
                0x00101bd0       0xcc C:/Users/fg7fww/_Install/App/DemoBoards/RSL10/Packages_RSL10_2.0/ONSemiconductor/RSL10/2.0.0//lib/ble_core/release\libblelib.a(prf-prf_utils.o)
 .text.prf_init
                0x00101c9c       0x64 C:/Users/fg7fww/_Install/App/DemoBoards/RSL10/Packages_RSL10_2.0/ONSemiconductor/RSL10/2.0.0//lib/ble_core/release\libblelib.a(prf-prf_utils.o)
                0x00101c9c                prf_init
 .text.prf_add_profile
                0x00101d00       0x6c C:/Users/fg7fww/_Install/App/DemoBoards/RSL10/Packages_RSL10_2.0/ONSemiconductor/RSL10/2.0.0//lib/ble_core/release\libblelib.a(prf-prf_utils.o)
                0x00101d00                prf_add_profile
 .text.prf_create
                0x00101d6c       0x28 C:/Users/fg7fww/_Install/App/DemoBoards/RSL10/Packages_RSL10_2.0/ONSemiconductor/RSL10/2.0.0//lib/ble_core/release\libblelib.a(prf-prf_utils.o)
                0x00101d6c                prf_create
 .text.prf_cleanup
                0x00101d94       0x34 C:/Users/fg7fww/_Install/App/DemoBoards/RSL10/Packages_RSL10_2.0/ONSemiconductor/RSL10/2.0.0//lib/ble_core/release\libblelib.a(prf-prf_utils.o)
                0x00101d94                prf_cleanup
 .text.prf_env_get
                0x00101dc8       0x24 C:/Users/fg7fww/_Install/App/DemoBoards/RSL10/Packages_RSL10_2.0/ONSemiconductor/RSL10/2.0.0//lib/ble_core/release\libblelib.a(prf-prf_utils.o)
                0x00101dc8                prf_env_get
 .text.prf_src_task_get
                0x00101dec       0x10 C:/Users/fg7fww/_Install/App/DemoBoards/RSL10/Packages_RSL10_2.0/ONSemiconductor/RSL10/2.0.0//lib/ble_core/release\libblelib.a(prf-prf_utils.o)
                0x00101dec                prf_src_task_get
 .text.prf_dst_task_get
                0x00101dfc       0x10 C:/Users/fg7fww/_Install/App/DemoBoards/RSL10/Packages_RSL10_2.0/ONSemiconductor/RSL10/2.0.0//lib/ble_core/release\libblelib.a(prf-prf_utils.o)
                0x00101dfc                prf_dst_task_get
 .text.prf_pack_char_pres_fmt
                0x00101e0c       0x1e C:/Users/fg7fww/_Install/App/DemoBoards/RSL10/Packages_RSL10_2.0/ONSemiconductor/RSL10/2.0.0//lib/ble_core/release\libblelib.a(prf-prf_utils.o)
                0x00101e0c                prf_pack_char_pres_fmt
 *fill*         0x00101e2a        0x2 
 .text.lld_evt_winsize_change
                0x00101e2c       0x8c C:/Users/fg7fww/_Install/App/DemoBoards/RSL10/Packages_RSL10_2.0/ONSemiconductor/RSL10/2.0.0//lib/ble_core/release\libblelib.a(lld_evt.o)
 .text.lld_evt_slave_time_compute
                0x00101eb8       0xa0 C:/Users/fg7fww/_Install/App/DemoBoards/RSL10/Packages_RSL10_2.0/ONSemiconductor/RSL10/2.0.0//lib/ble_core/release\libblelib.a(lld_evt.o)
 .text.lld_evt_prevent_stop
                0x00101f58        0x2 C:/Users/fg7fww/_Install/App/DemoBoards/RSL10/Packages_RSL10_2.0/ONSemiconductor/RSL10/2.0.0//lib/ble_core/release\libblelib.a(lld_evt.o)
                0x00101f58                lld_evt_prevent_stop
 *fill*         0x00101f5a        0x2 
 .text.lld_evt_deferred_elt_push
                0x00101f5c       0x28 C:/Users/fg7fww/_Install/App/DemoBoards/RSL10/Packages_RSL10_2.0/ONSemiconductor/RSL10/2.0.0//lib/ble_core/release\libblelib.a(lld_evt.o)
 .text.lld_evt_elt_wait_insert
                0x00101f84       0x20 C:/Users/fg7fww/_Install/App/DemoBoards/RSL10/Packages_RSL10_2.0/ONSemiconductor/RSL10/2.0.0//lib/ble_core/release\libblelib.a(lld_evt.o)
 .text.lld_evt_deferred_elt_pop
                0x00101fa4       0x2c C:/Users/fg7fww/_Install/App/DemoBoards/RSL10/Packages_RSL10_2.0/ONSemiconductor/RSL10/2.0.0//lib/ble_core/release\libblelib.a(lld_evt.o)
 .text.lld_evt_get_next_free_slot
                0x00101fd0       0x38 C:/Users/fg7fww/_Install/App/DemoBoards/RSL10/Packages_RSL10_2.0/ONSemiconductor/RSL10/2.0.0//lib/ble_core/release\libblelib.a(lld_evt.o)
 .text.lld_evt_elt_wait_get
                0x00102008       0x34 C:/Users/fg7fww/_Install/App/DemoBoards/RSL10/Packages_RSL10_2.0/ONSemiconductor/RSL10/2.0.0//lib/ble_core/release\libblelib.a(lld_evt.o)
 .text.lld_evt_schedule
                0x0010203c      0x150 C:/Users/fg7fww/_Install/App/DemoBoards/RSL10/Packages_RSL10_2.0/ONSemiconductor/RSL10/2.0.0//lib/ble_core/release\libblelib.a(lld_evt.o)
                0x0010203c                lld_evt_schedule
 .text.lld_evt_delete_elt_push
                0x0010218c       0x44 C:/Users/fg7fww/_Install/App/DemoBoards/RSL10/Packages_RSL10_2.0/ONSemiconductor/RSL10/2.0.0//lib/ble_core/release\libblelib.a(lld_evt.o)
                0x0010218c                lld_evt_delete_elt_push
 .text.lld_evt_deffered_elt_handler
                0x001021d0       0xf4 C:/Users/fg7fww/_Install/App/DemoBoards/RSL10/Packages_RSL10_2.0/ONSemiconductor/RSL10/2.0.0//lib/ble_core/release\libblelib.a(lld_evt.o)
                0x001021d0                lld_evt_deffered_elt_handler
 .text.lld_evt_channel_next
                0x001022c4       0x40 C:/Users/fg7fww/_Install/App/DemoBoards/RSL10/Packages_RSL10_2.0/ONSemiconductor/RSL10/2.0.0//lib/ble_core/release\libblelib.a(lld_evt.o)
                0x001022c4                lld_evt_channel_next
 .text.lld_evt_init
                0x00102304      0x12c C:/Users/fg7fww/_Install/App/DemoBoards/RSL10/Packages_RSL10_2.0/ONSemiconductor/RSL10/2.0.0//lib/ble_core/release\libblelib.a(lld_evt.o)
                0x00102304                lld_evt_init
 .text.lld_evt_init_evt
                0x00102430       0x40 C:/Users/fg7fww/_Install/App/DemoBoards/RSL10/Packages_RSL10_2.0/ONSemiconductor/RSL10/2.0.0//lib/ble_core/release\libblelib.a(lld_evt.o)
                0x00102430                lld_evt_init_evt
 .text.lld_evt_elt_delete
                0x00102470       0xc4 C:/Users/fg7fww/_Install/App/DemoBoards/RSL10/Packages_RSL10_2.0/ONSemiconductor/RSL10/2.0.0//lib/ble_core/release\libblelib.a(lld_evt.o)
                0x00102470                lld_evt_elt_delete
 .text.lld_evt_delete_elt_handler
                0x00102534       0x64 C:/Users/fg7fww/_Install/App/DemoBoards/RSL10/Packages_RSL10_2.0/ONSemiconductor/RSL10/2.0.0//lib/ble_core/release\libblelib.a(lld_evt.o)
 .text.lld_evt_drift_compute
                0x00102598       0x38 C:/Users/fg7fww/_Install/App/DemoBoards/RSL10/Packages_RSL10_2.0/ONSemiconductor/RSL10/2.0.0//lib/ble_core/release\libblelib.a(lld_evt.o)
                0x00102598                lld_evt_drift_compute
 .text.lld_evt_rxwin_compute
                0x001025d0       0x8c C:/Users/fg7fww/_Install/App/DemoBoards/RSL10/Packages_RSL10_2.0/ONSemiconductor/RSL10/2.0.0//lib/ble_core/release\libblelib.a(lld_evt.o)
 .text.lld_evt_restart
                0x0010265c      0x790 C:/Users/fg7fww/_Install/App/DemoBoards/RSL10/Packages_RSL10_2.0/ONSemiconductor/RSL10/2.0.0//lib/ble_core/release\libblelib.a(lld_evt.o)
                0x0010265c                lld_evt_restart
 .text.lld_evt_elt_insert
                0x00102dec       0x48 C:/Users/fg7fww/_Install/App/DemoBoards/RSL10/Packages_RSL10_2.0/ONSemiconductor/RSL10/2.0.0//lib/ble_core/release\libblelib.a(lld_evt.o)
                0x00102dec                lld_evt_elt_insert
 .text.lld_evt_canceled
                0x00102e34       0x3e C:/Users/fg7fww/_Install/App/DemoBoards/RSL10/Packages_RSL10_2.0/ONSemiconductor/RSL10/2.0.0//lib/ble_core/release\libblelib.a(lld_evt.o)
                0x00102e34                lld_evt_canceled
 *fill*         0x00102e72        0x2 
 .text.lld_evt_schedule_next
                0x00102e74      0x190 C:/Users/fg7fww/_Install/App/DemoBoards/RSL10/Packages_RSL10_2.0/ONSemiconductor/RSL10/2.0.0//lib/ble_core/release\libblelib.a(lld_evt.o)
                0x00102e74                lld_evt_schedule_next
 .text.lld_evt_scan_create
                0x00103004       0x88 C:/Users/fg7fww/_Install/App/DemoBoards/RSL10/Packages_RSL10_2.0/ONSemiconductor/RSL10/2.0.0//lib/ble_core/release\libblelib.a(lld_evt.o)
                0x00103004                lld_evt_scan_create
 .text.lld_evt_move_to_master
                0x0010308c      0x158 C:/Users/fg7fww/_Install/App/DemoBoards/RSL10/Packages_RSL10_2.0/ONSemiconductor/RSL10/2.0.0//lib/ble_core/release\libblelib.a(lld_evt.o)
                0x0010308c                lld_evt_move_to_master
 .text.lld_evt_update_create
                0x001031e4      0x12c C:/Users/fg7fww/_Install/App/DemoBoards/RSL10/Packages_RSL10_2.0/ONSemiconductor/RSL10/2.0.0//lib/ble_core/release\libblelib.a(lld_evt.o)
                0x001031e4                lld_evt_update_create
 .text.lld_evt_move_to_slave
                0x00103310      0x2d4 C:/Users/fg7fww/_Install/App/DemoBoards/RSL10/Packages_RSL10_2.0/ONSemiconductor/RSL10/2.0.0//lib/ble_core/release\libblelib.a(lld_evt.o)
                0x00103310                lld_evt_move_to_slave
 .text.lld_evt_slave_update
                0x001035e4      0x13c C:/Users/fg7fww/_Install/App/DemoBoards/RSL10/Packages_RSL10_2.0/ONSemiconductor/RSL10/2.0.0//lib/ble_core/release\libblelib.a(lld_evt.o)
                0x001035e4                lld_evt_slave_update
 .text.lld_evt_adv_create
                0x00103720       0x88 C:/Users/fg7fww/_Install/App/DemoBoards/RSL10/Packages_RSL10_2.0/ONSemiconductor/RSL10/2.0.0//lib/ble_core/release\libblelib.a(lld_evt.o)
                0x00103720                lld_evt_adv_create
 .text.lld_evt_end
                0x001037a8      0x174 C:/Users/fg7fww/_Install/App/DemoBoards/RSL10/Packages_RSL10_2.0/ONSemiconductor/RSL10/2.0.0//lib/ble_core/release\libblelib.a(lld_evt.o)
                0x001037a8                lld_evt_end
 .text.lld_evt_rx
                0x0010391c       0x40 C:/Users/fg7fww/_Install/App/DemoBoards/RSL10/Packages_RSL10_2.0/ONSemiconductor/RSL10/2.0.0//lib/ble_core/release\libblelib.a(lld_evt.o)
                0x0010391c                lld_evt_rx
 .text.lld_evt_end_isr
                0x0010395c       0x38 C:/Users/fg7fww/_Install/App/DemoBoards/RSL10/Packages_RSL10_2.0/ONSemiconductor/RSL10/2.0.0//lib/ble_core/release\libblelib.a(lld_evt.o)
                0x0010395c                lld_evt_end_isr
 .text.lld_evt_rx_isr
                0x00103994       0x10 C:/Users/fg7fww/_Install/App/DemoBoards/RSL10/Packages_RSL10_2.0/ONSemiconductor/RSL10/2.0.0//lib/ble_core/release\libblelib.a(lld_evt.o)
                0x00103994                lld_evt_rx_isr
 .text.lld_sleep_init
                0x001039a4       0x44 C:/Users/fg7fww/_Install/App/DemoBoards/RSL10/Packages_RSL10_2.0/ONSemiconductor/RSL10/2.0.0//lib/ble_core/release\libblelib.a(lld_sleep.o)
                0x001039a4                lld_sleep_init
 .text.lld_sleep_wakeup
                0x001039e8       0x80 C:/Users/fg7fww/_Install/App/DemoBoards/RSL10/Packages_RSL10_2.0/ONSemiconductor/RSL10/2.0.0//lib/ble_core/release\libblelib.a(lld_sleep.o)
                0x001039e8                lld_sleep_wakeup
 .text.lld_sleep_wakeup_end
                0x00103a68       0x1c C:/Users/fg7fww/_Install/App/DemoBoards/RSL10/Packages_RSL10_2.0/ONSemiconductor/RSL10/2.0.0//lib/ble_core/release\libblelib.a(lld_sleep.o)
                0x00103a68                lld_sleep_wakeup_end
 .text.hci_evt_mask_set.part.0
                0x00103a84       0x30 C:/Users/fg7fww/_Install/App/DemoBoards/RSL10/Packages_RSL10_2.0/ONSemiconductor/RSL10/2.0.0//lib/ble_core/release\libblelib.a(hci.o)
 .text.hci_reset
                0x00103ab4       0x24 C:/Users/fg7fww/_Install/App/DemoBoards/RSL10/Packages_RSL10_2.0/ONSemiconductor/RSL10/2.0.0//lib/ble_core/release\libblelib.a(hci.o)
                0x00103ab4                hci_reset
 .text.hci_init
                0x00103ad8        0x4 C:/Users/fg7fww/_Install/App/DemoBoards/RSL10/Packages_RSL10_2.0/ONSemiconductor/RSL10/2.0.0//lib/ble_core/release\libblelib.a(hci.o)
                0x00103ad8                hci_init
 .text.hci_send_2_host
                0x00103adc       0xec C:/Users/fg7fww/_Install/App/DemoBoards/RSL10/Packages_RSL10_2.0/ONSemiconductor/RSL10/2.0.0//lib/ble_core/release\libblelib.a(hci.o)
                0x00103adc                hci_send_2_host
 .text.hci_send_2_controller
                0x00103bc8       0x90 C:/Users/fg7fww/_Install/App/DemoBoards/RSL10/Packages_RSL10_2.0/ONSemiconductor/RSL10/2.0.0//lib/ble_core/release\libblelib.a(hci.o)
                0x00103bc8                hci_send_2_controller
 .text.hci_evt_mask_set
                0x00103c58       0x24 C:/Users/fg7fww/_Install/App/DemoBoards/RSL10/Packages_RSL10_2.0/ONSemiconductor/RSL10/2.0.0//lib/ble_core/release\libblelib.a(hci.o)
                0x00103c58                hci_evt_mask_set
 .text.hci_fc_init
                0x00103c7c       0x10 C:/Users/fg7fww/_Install/App/DemoBoards/RSL10/Packages_RSL10_2.0/ONSemiconductor/RSL10/2.0.0//lib/ble_core/release\libblelib.a(hci_fc.o)
                0x00103c7c                hci_fc_init
 .text.hci_fc_acl_buf_size_set
                0x00103c8c       0x20 C:/Users/fg7fww/_Install/App/DemoBoards/RSL10/Packages_RSL10_2.0/ONSemiconductor/RSL10/2.0.0//lib/ble_core/release\libblelib.a(hci_fc.o)
                0x00103c8c                hci_fc_acl_buf_size_set
 .text.hci_fc_acl_en
                0x00103cac       0x30 C:/Users/fg7fww/_Install/App/DemoBoards/RSL10/Packages_RSL10_2.0/ONSemiconductor/RSL10/2.0.0//lib/ble_core/release\libblelib.a(hci_fc.o)
                0x00103cac                hci_fc_acl_en
 .text.hci_fc_host_nb_acl_pkts_complete
                0x00103cdc       0x14 C:/Users/fg7fww/_Install/App/DemoBoards/RSL10/Packages_RSL10_2.0/ONSemiconductor/RSL10/2.0.0//lib/ble_core/release\libblelib.a(hci_fc.o)
                0x00103cdc                hci_fc_host_nb_acl_pkts_complete
 .text.hci_look_for_cmd_desc
                0x00103cf0       0x44 C:/Users/fg7fww/_Install/App/DemoBoards/RSL10/Packages_RSL10_2.0/ONSemiconductor/RSL10/2.0.0//lib/ble_core/release\libblelib.a(hci_msg.o)
                0x00103cf0                hci_look_for_cmd_desc
 .text.hci_look_for_evt_desc
                0x00103d34       0x24 C:/Users/fg7fww/_Install/App/DemoBoards/RSL10/Packages_RSL10_2.0/ONSemiconductor/RSL10/2.0.0//lib/ble_core/release\libblelib.a(hci_msg.o)
                0x00103d34                hci_look_for_evt_desc
 .text.hci_look_for_le_evt_desc
                0x00103d58       0x24 C:/Users/fg7fww/_Install/App/DemoBoards/RSL10/Packages_RSL10_2.0/ONSemiconductor/RSL10/2.0.0//lib/ble_core/release\libblelib.a(hci_msg.o)
                0x00103d58                hci_look_for_le_evt_desc
 .text.llm_wlpub_addr_set
                0x00103d7c       0x24 C:/Users/fg7fww/_Install/App/DemoBoards/RSL10/Packages_RSL10_2.0/ONSemiconductor/RSL10/2.0.0//lib/ble_core/release\libblelib.a(llm.o)
 .text.llm_wlpriv_addr_set
                0x00103da0       0x24 C:/Users/fg7fww/_Install/App/DemoBoards/RSL10/Packages_RSL10_2.0/ONSemiconductor/RSL10/2.0.0//lib/ble_core/release\libblelib.a(llm.o)
 .text.llm_con_req_ind
                0x00103dc4      0x174 C:/Users/fg7fww/_Install/App/DemoBoards/RSL10/Packages_RSL10_2.0/ONSemiconductor/RSL10/2.0.0//lib/ble_core/release\libblelib.a(llm.o)
                0x00103dc4                llm_con_req_ind
 .text.llm_le_adv_report_ind
                0x00103f38      0x32c C:/Users/fg7fww/_Install/App/DemoBoards/RSL10/Packages_RSL10_2.0/ONSemiconductor/RSL10/2.0.0//lib/ble_core/release\libblelib.a(llm.o)
                0x00103f38                llm_le_adv_report_ind
 .text.llm_con_req_tx_cfm
                0x00104264      0x130 C:/Users/fg7fww/_Install/App/DemoBoards/RSL10/Packages_RSL10_2.0/ONSemiconductor/RSL10/2.0.0//lib/ble_core/release\libblelib.a(llm.o)
                0x00104264                llm_con_req_tx_cfm
 .text.llm_common_cmd_complete_send
                0x00104394       0x1c C:/Users/fg7fww/_Install/App/DemoBoards/RSL10/Packages_RSL10_2.0/ONSemiconductor/RSL10/2.0.0//lib/ble_core/release\libblelib.a(llm.o)
                0x00104394                llm_common_cmd_complete_send
 .text.llm_ble_ready
                0x001043b0        0x8 C:/Users/fg7fww/_Install/App/DemoBoards/RSL10/Packages_RSL10_2.0/ONSemiconductor/RSL10/2.0.0//lib/ble_core/release\libblelib.a(llm.o)
                0x001043b0                llm_ble_ready
 .text.llm_common_cmd_status_send
                0x001043b8       0x1c C:/Users/fg7fww/_Install/App/DemoBoards/RSL10/Packages_RSL10_2.0/ONSemiconductor/RSL10/2.0.0//lib/ble_core/release\libblelib.a(llm.o)
                0x001043b8                llm_common_cmd_status_send
 .text.llm_test_mode_start_tx
                0x001043d4      0x258 C:/Users/fg7fww/_Install/App/DemoBoards/RSL10/Packages_RSL10_2.0/ONSemiconductor/RSL10/2.0.0//lib/ble_core/release\libblelib.a(llm.o)
                0x001043d4                llm_test_mode_start_tx
 .text.llm_test_mode_start_rx
                0x0010462c       0xc4 C:/Users/fg7fww/_Install/App/DemoBoards/RSL10/Packages_RSL10_2.0/ONSemiconductor/RSL10/2.0.0//lib/ble_core/release\libblelib.a(llm.o)
                0x0010462c                llm_test_mode_start_rx
 .text.llm_set_adv_param
                0x001046f0      0x164 C:/Users/fg7fww/_Install/App/DemoBoards/RSL10/Packages_RSL10_2.0/ONSemiconductor/RSL10/2.0.0//lib/ble_core/release\libblelib.a(llm.o)
                0x001046f0                llm_set_adv_param
 .text.llm_set_adv_data
                0x00104854       0x90 C:/Users/fg7fww/_Install/App/DemoBoards/RSL10/Packages_RSL10_2.0/ONSemiconductor/RSL10/2.0.0//lib/ble_core/release\libblelib.a(llm.o)
                0x00104854                llm_set_adv_data
 .text.llm_set_scan_rsp_data
                0x001048e4       0x90 C:/Users/fg7fww/_Install/App/DemoBoards/RSL10/Packages_RSL10_2.0/ONSemiconductor/RSL10/2.0.0//lib/ble_core/release\libblelib.a(llm.o)
                0x001048e4                llm_set_scan_rsp_data
 .text.llm_set_scan_param
                0x00104974       0x88 C:/Users/fg7fww/_Install/App/DemoBoards/RSL10/Packages_RSL10_2.0/ONSemiconductor/RSL10/2.0.0//lib/ble_core/release\libblelib.a(llm.o)
                0x00104974                llm_set_scan_param
 .text.llm_wl_clr
                0x001049fc       0x6c C:/Users/fg7fww/_Install/App/DemoBoards/RSL10/Packages_RSL10_2.0/ONSemiconductor/RSL10/2.0.0//lib/ble_core/release\libblelib.a(llm.o)
                0x001049fc                llm_wl_clr
 .text.llm_wl_dev_add
                0x00104a68       0x38 C:/Users/fg7fww/_Install/App/DemoBoards/RSL10/Packages_RSL10_2.0/ONSemiconductor/RSL10/2.0.0//lib/ble_core/release\libblelib.a(llm.o)
                0x00104a68                llm_wl_dev_add
 .text.llm_wl_dev_rem
                0x00104aa0       0x34 C:/Users/fg7fww/_Install/App/DemoBoards/RSL10/Packages_RSL10_2.0/ONSemiconductor/RSL10/2.0.0//lib/ble_core/release\libblelib.a(llm.o)
                0x00104aa0                llm_wl_dev_rem
 .text.llm_wl_dev_add_hdl
                0x00104ad4       0x7c C:/Users/fg7fww/_Install/App/DemoBoards/RSL10/Packages_RSL10_2.0/ONSemiconductor/RSL10/2.0.0//lib/ble_core/release\libblelib.a(llm.o)
                0x00104ad4                llm_wl_dev_add_hdl
 .text.llm_wl_dev_rem_hdl
                0x00104b50       0x78 C:/Users/fg7fww/_Install/App/DemoBoards/RSL10/Packages_RSL10_2.0/ONSemiconductor/RSL10/2.0.0//lib/ble_core/release\libblelib.a(llm.o)
                0x00104b50                llm_wl_dev_rem_hdl
 .text.llm_encryption_start
                0x00104bc8       0xb8 C:/Users/fg7fww/_Install/App/DemoBoards/RSL10/Packages_RSL10_2.0/ONSemiconductor/RSL10/2.0.0//lib/ble_core/release\libblelib.a(llm.o)
                0x00104bc8                llm_encryption_start
 .text.llm_encryption_done
                0x00104c80       0xb0 C:/Users/fg7fww/_Install/App/DemoBoards/RSL10/Packages_RSL10_2.0/ONSemiconductor/RSL10/2.0.0//lib/ble_core/release\libblelib.a(llm.o)
                0x00104c80                llm_encryption_done
 .text.llm_ral_clear
                0x00104d30       0x24 C:/Users/fg7fww/_Install/App/DemoBoards/RSL10/Packages_RSL10_2.0/ONSemiconductor/RSL10/2.0.0//lib/ble_core/release\libblelib.a(llm.o)
                0x00104d30                llm_ral_clear
 .text.llm_init
                0x00104d54      0x1d4 C:/Users/fg7fww/_Install/App/DemoBoards/RSL10/Packages_RSL10_2.0/ONSemiconductor/RSL10/2.0.0//lib/ble_core/release\libblelib.a(llm.o)
                0x00104d54                llm_init
 .text.llm_ral_dev_add
                0x00104f28      0x14c C:/Users/fg7fww/_Install/App/DemoBoards/RSL10/Packages_RSL10_2.0/ONSemiconductor/RSL10/2.0.0//lib/ble_core/release\libblelib.a(llm.o)
                0x00104f28                llm_ral_dev_add
 .text.llm_ral_dev_rm
                0x00105074       0x3c C:/Users/fg7fww/_Install/App/DemoBoards/RSL10/Packages_RSL10_2.0/ONSemiconductor/RSL10/2.0.0//lib/ble_core/release\libblelib.a(llm.o)
                0x00105074                llm_ral_dev_rm
 .text.llm_ral_get_rpa
                0x001050b0       0x70 C:/Users/fg7fww/_Install/App/DemoBoards/RSL10/Packages_RSL10_2.0/ONSemiconductor/RSL10/2.0.0//lib/ble_core/release\libblelib.a(llm.o)
                0x001050b0                llm_ral_get_rpa
 .text.llm_ral_set_timeout
                0x00105120       0x4c C:/Users/fg7fww/_Install/App/DemoBoards/RSL10/Packages_RSL10_2.0/ONSemiconductor/RSL10/2.0.0//lib/ble_core/release\libblelib.a(llm.o)
                0x00105120                llm_ral_set_timeout
 .text.llm_ral_update
                0x0010516c       0x34 C:/Users/fg7fww/_Install/App/DemoBoards/RSL10/Packages_RSL10_2.0/ONSemiconductor/RSL10/2.0.0//lib/ble_core/release\libblelib.a(llm.o)
                0x0010516c                llm_ral_update
 .text.llm_set_adv_en
                0x001051a0      0x130 C:/Users/fg7fww/_Install/App/DemoBoards/RSL10/Packages_RSL10_2.0/ONSemiconductor/RSL10/2.0.0//lib/ble_core/release\libblelib.a(llm.o)
                0x001051a0                llm_set_adv_en
 .text.llm_set_scan_en
                0x001052d0       0xa0 C:/Users/fg7fww/_Install/App/DemoBoards/RSL10/Packages_RSL10_2.0/ONSemiconductor/RSL10/2.0.0//lib/ble_core/release\libblelib.a(llm.o)
                0x001052d0                llm_set_scan_en
 .text.llm_create_con
                0x00105370      0x138 C:/Users/fg7fww/_Install/App/DemoBoards/RSL10/Packages_RSL10_2.0/ONSemiconductor/RSL10/2.0.0//lib/ble_core/release\libblelib.a(llm.o)
                0x00105370                llm_create_con
 .text.llm_dft_handler
                0x001054a8        0x4 C:/Users/fg7fww/_Install/App/DemoBoards/RSL10/Packages_RSL10_2.0/ONSemiconductor/RSL10/2.0.0//lib/ble_core/release\libblelib.a(llm_task.o)
 .text.llm_le_set_host_ch_class_cmd_sto_handler
                0x001054ac       0x10 C:/Users/fg7fww/_Install/App/DemoBoards/RSL10/Packages_RSL10_2.0/ONSemiconductor/RSL10/2.0.0//lib/ble_core/release\libblelib.a(llm_task.o)
 .text.llm_ecc_result_ind_handler
                0x001054bc       0xa0 C:/Users/fg7fww/_Install/App/DemoBoards/RSL10/Packages_RSL10_2.0/ONSemiconductor/RSL10/2.0.0//lib/ble_core/release\libblelib.a(llm_task.o)
 .text.llm_enc_req_handler
                0x0010555c       0x24 C:/Users/fg7fww/_Install/App/DemoBoards/RSL10/Packages_RSL10_2.0/ONSemiconductor/RSL10/2.0.0//lib/ble_core/release\libblelib.a(llm_task.o)
 .text.llm_le_enh_priv_addr_renew_timer_handler
                0x00105580       0x4c C:/Users/fg7fww/_Install/App/DemoBoards/RSL10/Packages_RSL10_2.0/ONSemiconductor/RSL10/2.0.0//lib/ble_core/release\libblelib.a(llm_task.o)
 .text.lld_stop_ind_handler
                0x001055cc       0x58 C:/Users/fg7fww/_Install/App/DemoBoards/RSL10/Packages_RSL10_2.0/ONSemiconductor/RSL10/2.0.0//lib/ble_core/release\libblelib.a(llm_task.o)
 .text.llm_util_bd_addr_wl_position
                0x00105624       0x70 C:/Users/fg7fww/_Install/App/DemoBoards/RSL10/Packages_RSL10_2.0/ONSemiconductor/RSL10/2.0.0//lib/ble_core/release\libblelib.a(llm_util.o)
                0x00105624                llm_util_bd_addr_wl_position
 .text.llm_util_check_address_validity
                0x00105694       0x18 C:/Users/fg7fww/_Install/App/DemoBoards/RSL10/Packages_RSL10_2.0/ONSemiconductor/RSL10/2.0.0//lib/ble_core/release\libblelib.a(llm_util.o)
                0x00105694                llm_util_check_address_validity
 .text.llm_util_check_map_validity
                0x001056ac       0x4a C:/Users/fg7fww/_Install/App/DemoBoards/RSL10/Packages_RSL10_2.0/ONSemiconductor/RSL10/2.0.0//lib/ble_core/release\libblelib.a(llm_util.o)
                0x001056ac                llm_util_check_map_validity
 *fill*         0x001056f6        0x2 
 .text.llm_util_apply_bd_addr
                0x001056f8       0x20 C:/Users/fg7fww/_Install/App/DemoBoards/RSL10/Packages_RSL10_2.0/ONSemiconductor/RSL10/2.0.0//lib/ble_core/release\libblelib.a(llm_util.o)
                0x001056f8                llm_util_apply_bd_addr
 .text.llm_util_check_evt_mask
                0x00105718       0x1c C:/Users/fg7fww/_Install/App/DemoBoards/RSL10/Packages_RSL10_2.0/ONSemiconductor/RSL10/2.0.0//lib/ble_core/release\libblelib.a(llm_util.o)
                0x00105718                llm_util_check_evt_mask
 .text.llm_util_get_channel_map
                0x00105734       0x10 C:/Users/fg7fww/_Install/App/DemoBoards/RSL10/Packages_RSL10_2.0/ONSemiconductor/RSL10/2.0.0//lib/ble_core/release\libblelib.a(llm_util.o)
                0x00105734                llm_util_get_channel_map
 .text.llm_util_get_supp_features
                0x00105744       0x10 C:/Users/fg7fww/_Install/App/DemoBoards/RSL10/Packages_RSL10_2.0/ONSemiconductor/RSL10/2.0.0//lib/ble_core/release\libblelib.a(llm_util.o)
                0x00105744                llm_util_get_supp_features
 .text.llm_util_adv_data_update
                0x00105754       0x40 C:/Users/fg7fww/_Install/App/DemoBoards/RSL10/Packages_RSL10_2.0/ONSemiconductor/RSL10/2.0.0//lib/ble_core/release\libblelib.a(llm_util.o)
                0x00105754                llm_util_adv_data_update
 .text.llm_util_bl_check
                0x00105794       0x68 C:/Users/fg7fww/_Install/App/DemoBoards/RSL10/Packages_RSL10_2.0/ONSemiconductor/RSL10/2.0.0//lib/ble_core/release\libblelib.a(llm_util.o)
                0x00105794                llm_util_bl_check
 .text.llm_util_bd_addr_in_wl
                0x001057fc       0x4e C:/Users/fg7fww/_Install/App/DemoBoards/RSL10/Packages_RSL10_2.0/ONSemiconductor/RSL10/2.0.0//lib/ble_core/release\libblelib.a(llm_util.o)
                0x001057fc                llm_util_bd_addr_in_wl
 *fill*         0x0010584a        0x2 
 .text.llm_util_get_default_phy
                0x0010584c       0x2c C:/Users/fg7fww/_Install/App/DemoBoards/RSL10/Packages_RSL10_2.0/ONSemiconductor/RSL10/2.0.0//lib/ble_core/release\libblelib.a(llm_util.o)
                0x0010584c                llm_util_get_default_phy
 .text.llm_util_bd_addr_in_ral
                0x00105878       0x68 C:/Users/fg7fww/_Install/App/DemoBoards/RSL10/Packages_RSL10_2.0/ONSemiconductor/RSL10/2.0.0//lib/ble_core/release\libblelib.a(llm_util.o)
                0x00105878                llm_util_bd_addr_in_ral
 .text.llm_util_bl_add
                0x001058e0       0x8c C:/Users/fg7fww/_Install/App/DemoBoards/RSL10/Packages_RSL10_2.0/ONSemiconductor/RSL10/2.0.0//lib/ble_core/release\libblelib.a(llm_util.o)
                0x001058e0                llm_util_bl_add
 .text.llm_util_bl_rem
                0x0010596c       0x6c C:/Users/fg7fww/_Install/App/DemoBoards/RSL10/Packages_RSL10_2.0/ONSemiconductor/RSL10/2.0.0//lib/ble_core/release\libblelib.a(llm_util.o)
                0x0010596c                llm_util_bl_rem
 .text.llm_end_evt_defer
                0x001059d8       0xb0 C:/Users/fg7fww/_Install/App/DemoBoards/RSL10/Packages_RSL10_2.0/ONSemiconductor/RSL10/2.0.0//lib/ble_core/release\libblelib.a(llm_util.o)
                0x001059d8                llm_end_evt_defer
 .text.llm_pdu_defer
                0x00105a88       0x80 C:/Users/fg7fww/_Install/App/DemoBoards/RSL10/Packages_RSL10_2.0/ONSemiconductor/RSL10/2.0.0//lib/ble_core/release\libblelib.a(llm_util.o)
                0x00105a88                llm_pdu_defer
 .text.lld_init
                0x00105b08      0x214 C:/Users/fg7fww/_Install/App/DemoBoards/RSL10/Packages_RSL10_2.0/ONSemiconductor/RSL10/2.0.0//lib/ble_core/release\libblelib.a(lld.o)
                0x00105b08                lld_init
 .text.lld_core_reset
                0x00105d1c       0x5c C:/Users/fg7fww/_Install/App/DemoBoards/RSL10/Packages_RSL10_2.0/ONSemiconductor/RSL10/2.0.0//lib/ble_core/release\libblelib.a(lld.o)
                0x00105d1c                lld_core_reset
 .text.lld_adv_start
                0x00105d78      0x230 C:/Users/fg7fww/_Install/App/DemoBoards/RSL10/Packages_RSL10_2.0/ONSemiconductor/RSL10/2.0.0//lib/ble_core/release\libblelib.a(lld.o)
                0x00105d78                lld_adv_start
 .text.lld_adv_stop
                0x00105fa8       0x2c C:/Users/fg7fww/_Install/App/DemoBoards/RSL10/Packages_RSL10_2.0/ONSemiconductor/RSL10/2.0.0//lib/ble_core/release\libblelib.a(lld.o)
                0x00105fa8                lld_adv_stop
 .text.lld_scan_start
                0x00105fd4      0x1bc C:/Users/fg7fww/_Install/App/DemoBoards/RSL10/Packages_RSL10_2.0/ONSemiconductor/RSL10/2.0.0//lib/ble_core/release\libblelib.a(lld.o)
                0x00105fd4                lld_scan_start
 .text.lld_scan_stop
                0x00106190       0x2c C:/Users/fg7fww/_Install/App/DemoBoards/RSL10/Packages_RSL10_2.0/ONSemiconductor/RSL10/2.0.0//lib/ble_core/release\libblelib.a(lld.o)
                0x00106190                lld_scan_stop
 .text.lld_con_start
                0x001061bc      0x614 C:/Users/fg7fww/_Install/App/DemoBoards/RSL10/Packages_RSL10_2.0/ONSemiconductor/RSL10/2.0.0//lib/ble_core/release\libblelib.a(lld.o)
                0x001061bc                lld_con_start
 .text.lld_move_to_master
                0x001067d0       0xc8 C:/Users/fg7fww/_Install/App/DemoBoards/RSL10/Packages_RSL10_2.0/ONSemiconductor/RSL10/2.0.0//lib/ble_core/release\libblelib.a(lld.o)
                0x001067d0                lld_move_to_master
 .text.lld_con_update_req
                0x00106898       0x5a C:/Users/fg7fww/_Install/App/DemoBoards/RSL10/Packages_RSL10_2.0/ONSemiconductor/RSL10/2.0.0//lib/ble_core/release\libblelib.a(lld.o)
                0x00106898                lld_con_update_req
 *fill*         0x001068f2        0x2 
 .text.lld_con_update_after_param_req
                0x001068f4      0x240 C:/Users/fg7fww/_Install/App/DemoBoards/RSL10/Packages_RSL10_2.0/ONSemiconductor/RSL10/2.0.0//lib/ble_core/release\libblelib.a(lld.o)
                0x001068f4                lld_con_update_after_param_req
 .text.lld_con_param_rsp
                0x00106b34       0xfc C:/Users/fg7fww/_Install/App/DemoBoards/RSL10/Packages_RSL10_2.0/ONSemiconductor/RSL10/2.0.0//lib/ble_core/release\libblelib.a(lld.o)
                0x00106b34                lld_con_param_rsp
 .text.lld_con_param_req
                0x00106c30       0xc0 C:/Users/fg7fww/_Install/App/DemoBoards/RSL10/Packages_RSL10_2.0/ONSemiconductor/RSL10/2.0.0//lib/ble_core/release\libblelib.a(lld.o)
                0x00106c30                lld_con_param_req
 .text.lld_con_stop
                0x00106cf0        0x8 C:/Users/fg7fww/_Install/App/DemoBoards/RSL10/Packages_RSL10_2.0/ONSemiconductor/RSL10/2.0.0//lib/ble_core/release\libblelib.a(lld.o)
                0x00106cf0                lld_con_stop
 .text.lld_get_mode
                0x00106cf8       0x28 C:/Users/fg7fww/_Install/App/DemoBoards/RSL10/Packages_RSL10_2.0/ONSemiconductor/RSL10/2.0.0//lib/ble_core/release\libblelib.a(lld.o)
                0x00106cf8                lld_get_mode
 .text.lld_move_to_slave
                0x00106d20      0x1b0 C:/Users/fg7fww/_Install/App/DemoBoards/RSL10/Packages_RSL10_2.0/ONSemiconductor/RSL10/2.0.0//lib/ble_core/release\libblelib.a(lld.o)
                0x00106d20                lld_move_to_slave
 .text.lld_ch_map_ind
                0x00106ed0       0x46 C:/Users/fg7fww/_Install/App/DemoBoards/RSL10/Packages_RSL10_2.0/ONSemiconductor/RSL10/2.0.0//lib/ble_core/release\libblelib.a(lld.o)
                0x00106ed0                lld_ch_map_ind
 .text.lld_con_update_ind
                0x00106f16        0xa C:/Users/fg7fww/_Install/App/DemoBoards/RSL10/Packages_RSL10_2.0/ONSemiconductor/RSL10/2.0.0//lib/ble_core/release\libblelib.a(lld.o)
                0x00106f16                lld_con_update_ind
 .text.lld_crypt_isr
                0x00106f20        0x6 C:/Users/fg7fww/_Install/App/DemoBoards/RSL10/Packages_RSL10_2.0/ONSemiconductor/RSL10/2.0.0//lib/ble_core/release\libblelib.a(lld.o)
                0x00106f20                lld_crypt_isr
 *fill*         0x00106f26        0x2 
 .text.lld_test_mode_tx
                0x00106f28       0xfc C:/Users/fg7fww/_Install/App/DemoBoards/RSL10/Packages_RSL10_2.0/ONSemiconductor/RSL10/2.0.0//lib/ble_core/release\libblelib.a(lld.o)
                0x00106f28                lld_test_mode_tx
 .text.lld_test_mode_rx
                0x00107024       0xf4 C:/Users/fg7fww/_Install/App/DemoBoards/RSL10/Packages_RSL10_2.0/ONSemiconductor/RSL10/2.0.0//lib/ble_core/release\libblelib.a(lld.o)
                0x00107024                lld_test_mode_rx
 .text.lld_test_stop
                0x00107118       0x4c C:/Users/fg7fww/_Install/App/DemoBoards/RSL10/Packages_RSL10_2.0/ONSemiconductor/RSL10/2.0.0//lib/ble_core/release\libblelib.a(lld.o)
                0x00107118                lld_test_stop
 .text.lld_ral_renew_req
                0x00107164       0x14 C:/Users/fg7fww/_Install/App/DemoBoards/RSL10/Packages_RSL10_2.0/ONSemiconductor/RSL10/2.0.0//lib/ble_core/release\libblelib.a(lld.o)
                0x00107164                lld_ral_renew_req
 .text.lld_pdu_llcp_con_param_req_unpk
                0x00107178       0xcc C:/Users/fg7fww/_Install/App/DemoBoards/RSL10/Packages_RSL10_2.0/ONSemiconductor/RSL10/2.0.0//lib/ble_core/release\libblelib.a(lld_pdu.o)
 .text.lld_pdu_llcp_con_param_rsp_unpk
                0x00107244       0xcc C:/Users/fg7fww/_Install/App/DemoBoards/RSL10/Packages_RSL10_2.0/ONSemiconductor/RSL10/2.0.0//lib/ble_core/release\libblelib.a(lld_pdu.o)
 .text.lld_pdu_llcp_length_req_unpk
                0x00107310       0x3e C:/Users/fg7fww/_Install/App/DemoBoards/RSL10/Packages_RSL10_2.0/ONSemiconductor/RSL10/2.0.0//lib/ble_core/release\libblelib.a(lld_pdu.o)
 .text.lld_pdu_llcp_length_rsp_unpk
                0x0010734e       0x3e C:/Users/fg7fww/_Install/App/DemoBoards/RSL10/Packages_RSL10_2.0/ONSemiconductor/RSL10/2.0.0//lib/ble_core/release\libblelib.a(lld_pdu.o)
 .text.lld_pdu_llcp_phy_upd_req_unpk
                0x0010738c       0x2e C:/Users/fg7fww/_Install/App/DemoBoards/RSL10/Packages_RSL10_2.0/ONSemiconductor/RSL10/2.0.0//lib/ble_core/release\libblelib.a(lld_pdu.o)
 .text.lld_pdu_pack
                0x001073ba       0xc0 C:/Users/fg7fww/_Install/App/DemoBoards/RSL10/Packages_RSL10_2.0/ONSemiconductor/RSL10/2.0.0//lib/ble_core/release\libblelib.a(lld_pdu.o)
 .text.lld_pdu_tx_flush_list
                0x0010747a       0x3a C:/Users/fg7fww/_Install/App/DemoBoards/RSL10/Packages_RSL10_2.0/ONSemiconductor/RSL10/2.0.0//lib/ble_core/release\libblelib.a(lld_pdu.o)
 .text.lld_pdu_cntl_aligned_unpk
                0x001074b4       0x16 C:/Users/fg7fww/_Install/App/DemoBoards/RSL10/Packages_RSL10_2.0/ONSemiconductor/RSL10/2.0.0//lib/ble_core/release\libblelib.a(lld_pdu.o)
 *fill*         0x001074ca        0x2 
 .text.lld_pdu_check
                0x001074cc      0x14c C:/Users/fg7fww/_Install/App/DemoBoards/RSL10/Packages_RSL10_2.0/ONSemiconductor/RSL10/2.0.0//lib/ble_core/release\libblelib.a(lld_pdu.o)
                0x001074cc                lld_pdu_check
 .text.lld_pdu_tx_loop
                0x00107618       0x2c C:/Users/fg7fww/_Install/App/DemoBoards/RSL10/Packages_RSL10_2.0/ONSemiconductor/RSL10/2.0.0//lib/ble_core/release\libblelib.a(lld_pdu.o)
                0x00107618                lld_pdu_tx_loop
 .text.lld_pdu_data_tx_push
                0x00107644       0x84 C:/Users/fg7fww/_Install/App/DemoBoards/RSL10/Packages_RSL10_2.0/ONSemiconductor/RSL10/2.0.0//lib/ble_core/release\libblelib.a(lld_pdu.o)
                0x00107644                lld_pdu_data_tx_push
 .text.lld_pdu_data_send
                0x001076c8       0x40 C:/Users/fg7fww/_Install/App/DemoBoards/RSL10/Packages_RSL10_2.0/ONSemiconductor/RSL10/2.0.0//lib/ble_core/release\libblelib.a(lld_pdu.o)
                0x001076c8                lld_pdu_data_send
 .text.lld_pdu_tx_push
                0x00107708       0x3c C:/Users/fg7fww/_Install/App/DemoBoards/RSL10/Packages_RSL10_2.0/ONSemiconductor/RSL10/2.0.0//lib/ble_core/release\libblelib.a(lld_pdu.o)
                0x00107708                lld_pdu_tx_push
 .text.lld_pdu_tx_prog
                0x00107744      0x384 C:/Users/fg7fww/_Install/App/DemoBoards/RSL10/Packages_RSL10_2.0/ONSemiconductor/RSL10/2.0.0//lib/ble_core/release\libblelib.a(lld_pdu.o)
                0x00107744                lld_pdu_tx_prog
 .text.lld_pdu_tx_flush
                0x00107ac8       0x5a C:/Users/fg7fww/_Install/App/DemoBoards/RSL10/Packages_RSL10_2.0/ONSemiconductor/RSL10/2.0.0//lib/ble_core/release\libblelib.a(lld_pdu.o)
                0x00107ac8                lld_pdu_tx_flush
 *fill*         0x00107b22        0x2 
 .text.lld_pdu_adv_pack
                0x00107b24       0x24 C:/Users/fg7fww/_Install/App/DemoBoards/RSL10/Packages_RSL10_2.0/ONSemiconductor/RSL10/2.0.0//lib/ble_core/release\libblelib.a(lld_pdu.o)
                0x00107b24                lld_pdu_adv_pack
 .text.lld_pdu_rx_handler
                0x00107b48      0x298 C:/Users/fg7fww/_Install/App/DemoBoards/RSL10/Packages_RSL10_2.0/ONSemiconductor/RSL10/2.0.0//lib/ble_core/release\libblelib.a(lld_pdu.o)
                0x00107b48                lld_pdu_rx_handler
 .text.lld_util_instant_get
                0x00107de0       0x18 C:/Users/fg7fww/_Install/App/DemoBoards/RSL10/Packages_RSL10_2.0/ONSemiconductor/RSL10/2.0.0//lib/ble_core/release\libblelib.a(lld_util.o)
                0x00107de0                lld_util_instant_get
 .text.lld_util_set_bd_address
                0x00107df8       0x44 C:/Users/fg7fww/_Install/App/DemoBoards/RSL10/Packages_RSL10_2.0/ONSemiconductor/RSL10/2.0.0//lib/ble_core/release\libblelib.a(lld_util.o)
                0x00107df8                lld_util_set_bd_address
 .text.lld_util_ral_force_rpa_renew
                0x00107e3c       0x44 C:/Users/fg7fww/_Install/App/DemoBoards/RSL10/Packages_RSL10_2.0/ONSemiconductor/RSL10/2.0.0//lib/ble_core/release\libblelib.a(lld_util.o)
                0x00107e3c                lld_util_ral_force_rpa_renew
 .text.lld_util_freq2chnl
                0x00107e80       0x20 C:/Users/fg7fww/_Install/App/DemoBoards/RSL10/Packages_RSL10_2.0/ONSemiconductor/RSL10/2.0.0//lib/ble_core/release\libblelib.a(lld_util.o)
                0x00107e80                lld_util_freq2chnl
 .text.lld_util_get_local_offset
                0x00107ea0       0x16 C:/Users/fg7fww/_Install/App/DemoBoards/RSL10/Packages_RSL10_2.0/ONSemiconductor/RSL10/2.0.0//lib/ble_core/release\libblelib.a(lld_util.o)
                0x00107ea0                lld_util_get_local_offset
 .text.lld_util_get_peer_offset
                0x00107eb6       0x18 C:/Users/fg7fww/_Install/App/DemoBoards/RSL10/Packages_RSL10_2.0/ONSemiconductor/RSL10/2.0.0//lib/ble_core/release\libblelib.a(lld_util.o)
                0x00107eb6                lld_util_get_peer_offset
 .text.lld_util_connection_param_set
                0x00107ece       0x44 C:/Users/fg7fww/_Install/App/DemoBoards/RSL10/Packages_RSL10_2.0/ONSemiconductor/RSL10/2.0.0//lib/ble_core/release\libblelib.a(lld_util.o)
                0x00107ece                lld_util_connection_param_set
 *fill*         0x00107f12        0x2 
 .text.lld_util_dle_set_cs_fields
                0x00107f14       0x24 C:/Users/fg7fww/_Install/App/DemoBoards/RSL10/Packages_RSL10_2.0/ONSemiconductor/RSL10/2.0.0//lib/ble_core/release\libblelib.a(lld_util.o)
                0x00107f14                lld_util_dle_set_cs_fields
 .text.lld_util_anchor_point_move
                0x00107f38       0xde C:/Users/fg7fww/_Install/App/DemoBoards/RSL10/Packages_RSL10_2.0/ONSemiconductor/RSL10/2.0.0//lib/ble_core/release\libblelib.a(lld_util.o)
                0x00107f38                lld_util_anchor_point_move
 .text.lld_util_flush_list
                0x00108016       0x14 C:/Users/fg7fww/_Install/App/DemoBoards/RSL10/Packages_RSL10_2.0/ONSemiconductor/RSL10/2.0.0//lib/ble_core/release\libblelib.a(lld_util.o)
                0x00108016                lld_util_flush_list
 .text.lld_util_instant_ongoing
                0x0010802a        0xc C:/Users/fg7fww/_Install/App/DemoBoards/RSL10/Packages_RSL10_2.0/ONSemiconductor/RSL10/2.0.0//lib/ble_core/release\libblelib.a(lld_util.o)
                0x0010802a                lld_util_instant_ongoing
 *fill*         0x00108036        0x2 
 .text.lld_util_compute_ce_max
                0x00108038       0xb0 C:/Users/fg7fww/_Install/App/DemoBoards/RSL10/Packages_RSL10_2.0/ONSemiconductor/RSL10/2.0.0//lib/ble_core/release\libblelib.a(lld_util.o)
                0x00108038                lld_util_compute_ce_max
 .text.lld_util_priority_set
                0x001080e8       0x48 C:/Users/fg7fww/_Install/App/DemoBoards/RSL10/Packages_RSL10_2.0/ONSemiconductor/RSL10/2.0.0//lib/ble_core/release\libblelib.a(lld_util.o)
                0x001080e8                lld_util_priority_set
 .text.lld_util_get_tx_pkt_cnt
                0x00108130        0x6 C:/Users/fg7fww/_Install/App/DemoBoards/RSL10/Packages_RSL10_2.0/ONSemiconductor/RSL10/2.0.0//lib/ble_core/release\libblelib.a(lld_util.o)
                0x00108130                lld_util_get_tx_pkt_cnt
 *fill*         0x00108136        0x2 
 .text.lld_util_get_phys
                0x00108138       0x34 C:/Users/fg7fww/_Install/App/DemoBoards/RSL10/Packages_RSL10_2.0/ONSemiconductor/RSL10/2.0.0//lib/ble_core/release\libblelib.a(lld_util.o)
                0x00108138                lld_util_get_phys
 .text.lld_util_phy_update_ind
                0x0010816c       0x74 C:/Users/fg7fww/_Install/App/DemoBoards/RSL10/Packages_RSL10_2.0/ONSemiconductor/RSL10/2.0.0//lib/ble_core/release\libblelib.a(lld_util.o)
                0x0010816c                lld_util_phy_update_ind
 .text.lld_util_phy_update_req
                0x001081e0       0x40 C:/Users/fg7fww/_Install/App/DemoBoards/RSL10/Packages_RSL10_2.0/ONSemiconductor/RSL10/2.0.0//lib/ble_core/release\libblelib.a(lld_util.o)
                0x001081e0                lld_util_phy_update_req
 .text.lld_util_eff_tx_time_set
                0x00108220        0xa C:/Users/fg7fww/_Install/App/DemoBoards/RSL10/Packages_RSL10_2.0/ONSemiconductor/RSL10/2.0.0//lib/ble_core/release\libblelib.a(lld_util.o)
                0x00108220                lld_util_eff_tx_time_set
 *fill*         0x0010822a        0x2 
 .text.lld_wlcoex_set
                0x0010822c       0x18 C:/Users/fg7fww/_Install/App/DemoBoards/RSL10/Packages_RSL10_2.0/ONSemiconductor/RSL10/2.0.0//lib/ble_core/release\libblelib.a(lld_wlcoex.o)
                0x0010822c                lld_wlcoex_set
 .text.llc_init
                0x00108244       0x48 C:/Users/fg7fww/_Install/App/DemoBoards/RSL10/Packages_RSL10_2.0/ONSemiconductor/RSL10/2.0.0//lib/ble_core/release\libblelib.a(llc.o)
                0x00108244                llc_init
 .text.llc_stop
                0x0010828c       0x54 C:/Users/fg7fww/_Install/App/DemoBoards/RSL10/Packages_RSL10_2.0/ONSemiconductor/RSL10/2.0.0//lib/ble_core/release\libblelib.a(llc.o)
                0x0010828c                llc_stop
 .text.llc_reset
                0x001082e0       0x26 C:/Users/fg7fww/_Install/App/DemoBoards/RSL10/Packages_RSL10_2.0/ONSemiconductor/RSL10/2.0.0//lib/ble_core/release\libblelib.a(llc.o)
                0x001082e0                llc_reset
 .text.llc_discon_event_complete_send
                0x00108306       0x24 C:/Users/fg7fww/_Install/App/DemoBoards/RSL10/Packages_RSL10_2.0/ONSemiconductor/RSL10/2.0.0//lib/ble_core/release\libblelib.a(llc.o)
                0x00108306                llc_discon_event_complete_send
 *fill*         0x0010832a        0x2 
 .text.llc_le_con_cmp_evt_send
                0x0010832c      0x21c C:/Users/fg7fww/_Install/App/DemoBoards/RSL10/Packages_RSL10_2.0/ONSemiconductor/RSL10/2.0.0//lib/ble_core/release\libblelib.a(llc.o)
                0x0010832c                llc_le_con_cmp_evt_send
 .text.llc_start
                0x00108548      0x160 C:/Users/fg7fww/_Install/App/DemoBoards/RSL10/Packages_RSL10_2.0/ONSemiconductor/RSL10/2.0.0//lib/ble_core/release\libblelib.a(llc.o)
                0x00108548                llc_start
 .text.llc_con_update_complete_send
                0x001086a8       0x60 C:/Users/fg7fww/_Install/App/DemoBoards/RSL10/Packages_RSL10_2.0/ONSemiconductor/RSL10/2.0.0//lib/ble_core/release\libblelib.a(llc.o)
                0x001086a8                llc_con_update_complete_send
 .text.llc_ltk_req_send
                0x00108708       0x36 C:/Users/fg7fww/_Install/App/DemoBoards/RSL10/Packages_RSL10_2.0/ONSemiconductor/RSL10/2.0.0//lib/ble_core/release\libblelib.a(llc.o)
                0x00108708                llc_ltk_req_send
 .text.llc_feats_rd_event_send
                0x0010873e       0x38 C:/Users/fg7fww/_Install/App/DemoBoards/RSL10/Packages_RSL10_2.0/ONSemiconductor/RSL10/2.0.0//lib/ble_core/release\libblelib.a(llc.o)
                0x0010873e                llc_feats_rd_event_send
 *fill*         0x00108776        0x2 
 .text.llc_version_rd_event_send
                0x00108778       0x3c C:/Users/fg7fww/_Install/App/DemoBoards/RSL10/Packages_RSL10_2.0/ONSemiconductor/RSL10/2.0.0//lib/ble_core/release\libblelib.a(llc.o)
                0x00108778                llc_version_rd_event_send
 .text.llc_common_cmd_complete_send
                0x001087b4       0x20 C:/Users/fg7fww/_Install/App/DemoBoards/RSL10/Packages_RSL10_2.0/ONSemiconductor/RSL10/2.0.0//lib/ble_core/release\libblelib.a(llc.o)
                0x001087b4                llc_common_cmd_complete_send
 .text.llc_common_cmd_status_send
                0x001087d4       0x1c C:/Users/fg7fww/_Install/App/DemoBoards/RSL10/Packages_RSL10_2.0/ONSemiconductor/RSL10/2.0.0//lib/ble_core/release\libblelib.a(llc.o)
                0x001087d4                llc_common_cmd_status_send
 .text.llc_common_flush_occurred_send
                0x001087f0       0x1c C:/Users/fg7fww/_Install/App/DemoBoards/RSL10/Packages_RSL10_2.0/ONSemiconductor/RSL10/2.0.0//lib/ble_core/release\libblelib.a(llc.o)
                0x001087f0                llc_common_flush_occurred_send
 .text.llc_common_enc_key_ref_comp_evt_send
                0x0010880c       0x20 C:/Users/fg7fww/_Install/App/DemoBoards/RSL10/Packages_RSL10_2.0/ONSemiconductor/RSL10/2.0.0//lib/ble_core/release\libblelib.a(llc.o)
                0x0010880c                llc_common_enc_key_ref_comp_evt_send
 .text.llc_common_enc_change_evt_send
                0x0010882c       0x78 C:/Users/fg7fww/_Install/App/DemoBoards/RSL10/Packages_RSL10_2.0/ONSemiconductor/RSL10/2.0.0//lib/ble_core/release\libblelib.a(llc.o)
                0x0010882c                llc_common_enc_change_evt_send
 .text.llc_common_nb_of_pkt_comp_evt_send
                0x001088a4       0x24 C:/Users/fg7fww/_Install/App/DemoBoards/RSL10/Packages_RSL10_2.0/ONSemiconductor/RSL10/2.0.0//lib/ble_core/release\libblelib.a(llc.o)
                0x001088a4                llc_common_nb_of_pkt_comp_evt_send
 .text.llc_con_update_ind
                0x001088c8       0x4c C:/Users/fg7fww/_Install/App/DemoBoards/RSL10/Packages_RSL10_2.0/ONSemiconductor/RSL10/2.0.0//lib/ble_core/release\libblelib.a(llc.o)
                0x001088c8                llc_con_update_ind
 .text.llc_lsto_con_update
                0x00108914       0x44 C:/Users/fg7fww/_Install/App/DemoBoards/RSL10/Packages_RSL10_2.0/ONSemiconductor/RSL10/2.0.0//lib/ble_core/release\libblelib.a(llc.o)
                0x00108914                llc_lsto_con_update
 .text.llc_map_update_ind
                0x00108958       0x6c C:/Users/fg7fww/_Install/App/DemoBoards/RSL10/Packages_RSL10_2.0/ONSemiconductor/RSL10/2.0.0//lib/ble_core/release\libblelib.a(llc.o)
                0x00108958                llc_map_update_ind
 .text.llc_con_update_finished
                0x001089c4       0x84 C:/Users/fg7fww/_Install/App/DemoBoards/RSL10/Packages_RSL10_2.0/ONSemiconductor/RSL10/2.0.0//lib/ble_core/release\libblelib.a(llc.o)
                0x001089c4                llc_con_update_finished
 .text.llc_map_update_finished
                0x00108a48       0x7c C:/Users/fg7fww/_Install/App/DemoBoards/RSL10/Packages_RSL10_2.0/ONSemiconductor/RSL10/2.0.0//lib/ble_core/release\libblelib.a(llc.o)
                0x00108a48                llc_map_update_finished
 .text.llc_phy_update_complete_send
                0x00108ac4       0x2a C:/Users/fg7fww/_Install/App/DemoBoards/RSL10/Packages_RSL10_2.0/ONSemiconductor/RSL10/2.0.0//lib/ble_core/release\libblelib.a(llc.o)
                0x00108ac4                llc_phy_update_complete_send
 *fill*         0x00108aee        0x2 
 .text.llc_phy_update_finished
                0x00108af0       0xbc C:/Users/fg7fww/_Install/App/DemoBoards/RSL10/Packages_RSL10_2.0/ONSemiconductor/RSL10/2.0.0//lib/ble_core/release\libblelib.a(llc.o)
                0x00108af0                llc_phy_update_finished
 .text.llc_llcp_send
                0x00108bac       0x7c C:/Users/fg7fww/_Install/App/DemoBoards/RSL10/Packages_RSL10_2.0/ONSemiconductor/RSL10/2.0.0//lib/ble_core/release\libblelib.a(llc_llcp.o)
 .text.llcp_ping_rsp_handler
                0x00108c28       0x54 C:/Users/fg7fww/_Install/App/DemoBoards/RSL10/Packages_RSL10_2.0/ONSemiconductor/RSL10/2.0.0//lib/ble_core/release\libblelib.a(llc_llcp.o)
 .text.llcp_enc_rsp_handler
                0x00108c7c       0xe0 C:/Users/fg7fww/_Install/App/DemoBoards/RSL10/Packages_RSL10_2.0/ONSemiconductor/RSL10/2.0.0//lib/ble_core/release\libblelib.a(llc_llcp.o)
 .text.llcp_terminate_ind_handler
                0x00108d5c       0x4c C:/Users/fg7fww/_Install/App/DemoBoards/RSL10/Packages_RSL10_2.0/ONSemiconductor/RSL10/2.0.0//lib/ble_core/release\libblelib.a(llc_llcp.o)
 .text.llc_llcp_reject_ind
                0x00108da8      0x204 C:/Users/fg7fww/_Install/App/DemoBoards/RSL10/Packages_RSL10_2.0/ONSemiconductor/RSL10/2.0.0//lib/ble_core/release\libblelib.a(llc_llcp.o)
 .text.llcp_reject_ind_ext_handler
                0x00108fac        0xe C:/Users/fg7fww/_Install/App/DemoBoards/RSL10/Packages_RSL10_2.0/ONSemiconductor/RSL10/2.0.0//lib/ble_core/release\libblelib.a(llc_llcp.o)
 .text.llcp_reject_ind_handler
                0x00108fba        0xe C:/Users/fg7fww/_Install/App/DemoBoards/RSL10/Packages_RSL10_2.0/ONSemiconductor/RSL10/2.0.0//lib/ble_core/release\libblelib.a(llc_llcp.o)
 .text.llcp_pause_enc_req_handler
                0x00108fc8       0xb0 C:/Users/fg7fww/_Install/App/DemoBoards/RSL10/Packages_RSL10_2.0/ONSemiconductor/RSL10/2.0.0//lib/ble_core/release\libblelib.a(llc_llcp.o)
 .text.llcp_start_enc_req_handler
                0x00109078       0x68 C:/Users/fg7fww/_Install/App/DemoBoards/RSL10/Packages_RSL10_2.0/ONSemiconductor/RSL10/2.0.0//lib/ble_core/release\libblelib.a(llc_llcp.o)
 .text.llcp_enc_req_handler
                0x001090e0       0xc0 C:/Users/fg7fww/_Install/App/DemoBoards/RSL10/Packages_RSL10_2.0/ONSemiconductor/RSL10/2.0.0//lib/ble_core/release\libblelib.a(llc_llcp.o)
 .text.llcp_unknown_rsp_handler
                0x001091a0      0x230 C:/Users/fg7fww/_Install/App/DemoBoards/RSL10/Packages_RSL10_2.0/ONSemiconductor/RSL10/2.0.0//lib/ble_core/release\libblelib.a(llc_llcp.o)
 .text.llc_llcp_version_ind_pdu_send
                0x001093d0       0x2a C:/Users/fg7fww/_Install/App/DemoBoards/RSL10/Packages_RSL10_2.0/ONSemiconductor/RSL10/2.0.0//lib/ble_core/release\libblelib.a(llc_llcp.o)
                0x001093d0                llc_llcp_version_ind_pdu_send
 *fill*         0x001093fa        0x2 
 .text.llcp_vers_ind_handler
                0x001093fc       0x94 C:/Users/fg7fww/_Install/App/DemoBoards/RSL10/Packages_RSL10_2.0/ONSemiconductor/RSL10/2.0.0//lib/ble_core/release\libblelib.a(llc_llcp.o)
 .text.llc_llcp_ch_map_update_pdu_send
                0x00109490       0x44 C:/Users/fg7fww/_Install/App/DemoBoards/RSL10/Packages_RSL10_2.0/ONSemiconductor/RSL10/2.0.0//lib/ble_core/release\libblelib.a(llc_llcp.o)
                0x00109490                llc_llcp_ch_map_update_pdu_send
 .text.llc_llcp_pause_enc_req_pdu_send
                0x001094d4       0x30 C:/Users/fg7fww/_Install/App/DemoBoards/RSL10/Packages_RSL10_2.0/ONSemiconductor/RSL10/2.0.0//lib/ble_core/release\libblelib.a(llc_llcp.o)
                0x001094d4                llc_llcp_pause_enc_req_pdu_send
 .text.llc_llcp_pause_enc_rsp_pdu_send
                0x00109504       0x40 C:/Users/fg7fww/_Install/App/DemoBoards/RSL10/Packages_RSL10_2.0/ONSemiconductor/RSL10/2.0.0//lib/ble_core/release\libblelib.a(llc_llcp.o)
                0x00109504                llc_llcp_pause_enc_rsp_pdu_send
 .text.llcp_pause_enc_rsp_handler
                0x00109544       0xd4 C:/Users/fg7fww/_Install/App/DemoBoards/RSL10/Packages_RSL10_2.0/ONSemiconductor/RSL10/2.0.0//lib/ble_core/release\libblelib.a(llc_llcp.o)
 .text.llc_llcp_enc_req_pdu_send
                0x00109618       0xe0 C:/Users/fg7fww/_Install/App/DemoBoards/RSL10/Packages_RSL10_2.0/ONSemiconductor/RSL10/2.0.0//lib/ble_core/release\libblelib.a(llc_llcp.o)
                0x00109618                llc_llcp_enc_req_pdu_send
 .text.llc_llcp_enc_rsp_pdu_send
                0x001096f8       0x74 C:/Users/fg7fww/_Install/App/DemoBoards/RSL10/Packages_RSL10_2.0/ONSemiconductor/RSL10/2.0.0//lib/ble_core/release\libblelib.a(llc_llcp.o)
                0x001096f8                llc_llcp_enc_rsp_pdu_send
 .text.llc_llcp_start_enc_rsp_pdu_send
                0x0010976c       0x54 C:/Users/fg7fww/_Install/App/DemoBoards/RSL10/Packages_RSL10_2.0/ONSemiconductor/RSL10/2.0.0//lib/ble_core/release\libblelib.a(llc_llcp.o)
                0x0010976c                llc_llcp_start_enc_rsp_pdu_send
 .text.llcp_start_enc_rsp_handler
                0x001097c0      0x124 C:/Users/fg7fww/_Install/App/DemoBoards/RSL10/Packages_RSL10_2.0/ONSemiconductor/RSL10/2.0.0//lib/ble_core/release\libblelib.a(llc_llcp.o)
 .text.llc_llcp_reject_ind_pdu_send
                0x001098e4       0x5c C:/Users/fg7fww/_Install/App/DemoBoards/RSL10/Packages_RSL10_2.0/ONSemiconductor/RSL10/2.0.0//lib/ble_core/release\libblelib.a(llc_llcp.o)
                0x001098e4                llc_llcp_reject_ind_pdu_send
 .text.llcp_phy_upd_ind_handler
                0x00109940      0x1e8 C:/Users/fg7fww/_Install/App/DemoBoards/RSL10/Packages_RSL10_2.0/ONSemiconductor/RSL10/2.0.0//lib/ble_core/release\libblelib.a(llc_llcp.o)
 .text.llcp_phy_rsp_handler
                0x00109b28       0x6c C:/Users/fg7fww/_Install/App/DemoBoards/RSL10/Packages_RSL10_2.0/ONSemiconductor/RSL10/2.0.0//lib/ble_core/release\libblelib.a(llc_llcp.o)
 .text.llcp_length_rsp_handler
                0x00109b94      0x14c C:/Users/fg7fww/_Install/App/DemoBoards/RSL10/Packages_RSL10_2.0/ONSemiconductor/RSL10/2.0.0//lib/ble_core/release\libblelib.a(llc_llcp.o)
 .text.llcp_con_param_rsp_handler
                0x00109ce0       0xf0 C:/Users/fg7fww/_Install/App/DemoBoards/RSL10/Packages_RSL10_2.0/ONSemiconductor/RSL10/2.0.0//lib/ble_core/release\libblelib.a(llc_llcp.o)
 .text.llcp_feats_rsp_handler
                0x00109dd0       0xa8 C:/Users/fg7fww/_Install/App/DemoBoards/RSL10/Packages_RSL10_2.0/ONSemiconductor/RSL10/2.0.0//lib/ble_core/release\libblelib.a(llc_llcp.o)
 .text.llcp_channel_map_ind_handler
                0x00109e78      0x128 C:/Users/fg7fww/_Install/App/DemoBoards/RSL10/Packages_RSL10_2.0/ONSemiconductor/RSL10/2.0.0//lib/ble_core/release\libblelib.a(llc_llcp.o)
 .text.llcp_con_upd_ind_handler
                0x00109fa0      0x174 C:/Users/fg7fww/_Install/App/DemoBoards/RSL10/Packages_RSL10_2.0/ONSemiconductor/RSL10/2.0.0//lib/ble_core/release\libblelib.a(llc_llcp.o)
 .text.llc_llcp_con_update_pdu_send
                0x0010a114       0x3a C:/Users/fg7fww/_Install/App/DemoBoards/RSL10/Packages_RSL10_2.0/ONSemiconductor/RSL10/2.0.0//lib/ble_core/release\libblelib.a(llc_llcp.o)
                0x0010a114                llc_llcp_con_update_pdu_send
 .text.llc_llcp_con_param_req_pdu_send
                0x0010a14e       0x60 C:/Users/fg7fww/_Install/App/DemoBoards/RSL10/Packages_RSL10_2.0/ONSemiconductor/RSL10/2.0.0//lib/ble_core/release\libblelib.a(llc_llcp.o)
                0x0010a14e                llc_llcp_con_param_req_pdu_send
 .text.llc_llcp_con_param_rsp_pdu_send
                0x0010a1ae       0x60 C:/Users/fg7fww/_Install/App/DemoBoards/RSL10/Packages_RSL10_2.0/ONSemiconductor/RSL10/2.0.0//lib/ble_core/release\libblelib.a(llc_llcp.o)
                0x0010a1ae                llc_llcp_con_param_rsp_pdu_send
 *fill*         0x0010a20e        0x2 
 .text.llcp_con_param_req_handler
                0x0010a210      0x200 C:/Users/fg7fww/_Install/App/DemoBoards/RSL10/Packages_RSL10_2.0/ONSemiconductor/RSL10/2.0.0//lib/ble_core/release\libblelib.a(llc_llcp.o)
 .text.llc_llcp_feats_req_pdu_send
                0x0010a410       0x2c C:/Users/fg7fww/_Install/App/DemoBoards/RSL10/Packages_RSL10_2.0/ONSemiconductor/RSL10/2.0.0//lib/ble_core/release\libblelib.a(llc_llcp.o)
                0x0010a410                llc_llcp_feats_req_pdu_send
 .text.llc_llcp_feats_rsp_pdu_send
                0x0010a43c       0x26 C:/Users/fg7fww/_Install/App/DemoBoards/RSL10/Packages_RSL10_2.0/ONSemiconductor/RSL10/2.0.0//lib/ble_core/release\libblelib.a(llc_llcp.o)
                0x0010a43c                llc_llcp_feats_rsp_pdu_send
 *fill*         0x0010a462        0x2 
 .text.llcp_feats_req_handler
                0x0010a464       0x50 C:/Users/fg7fww/_Install/App/DemoBoards/RSL10/Packages_RSL10_2.0/ONSemiconductor/RSL10/2.0.0//lib/ble_core/release\libblelib.a(llc_llcp.o)
 .text.llcp_slave_feature_req_handler
                0x0010a4b4        0x4 C:/Users/fg7fww/_Install/App/DemoBoards/RSL10/Packages_RSL10_2.0/ONSemiconductor/RSL10/2.0.0//lib/ble_core/release\libblelib.a(llc_llcp.o)
 .text.llc_llcp_start_enc_req_pdu_send
                0x0010a4b8       0x60 C:/Users/fg7fww/_Install/App/DemoBoards/RSL10/Packages_RSL10_2.0/ONSemiconductor/RSL10/2.0.0//lib/ble_core/release\libblelib.a(llc_llcp.o)
                0x0010a4b8                llc_llcp_start_enc_req_pdu_send
 .text.llc_llcp_terminate_ind_pdu_send
                0x0010a518       0x64 C:/Users/fg7fww/_Install/App/DemoBoards/RSL10/Packages_RSL10_2.0/ONSemiconductor/RSL10/2.0.0//lib/ble_core/release\libblelib.a(llc_llcp.o)
                0x0010a518                llc_llcp_terminate_ind_pdu_send
 .text.llc_llcp_unknown_rsp_send_pdu
                0x0010a57c       0x1a C:/Users/fg7fww/_Install/App/DemoBoards/RSL10/Packages_RSL10_2.0/ONSemiconductor/RSL10/2.0.0//lib/ble_core/release\libblelib.a(llc_llcp.o)
                0x0010a57c                llc_llcp_unknown_rsp_send_pdu
 .text.llc_llcp_ping_req_pdu_send
                0x0010a596       0x16 C:/Users/fg7fww/_Install/App/DemoBoards/RSL10/Packages_RSL10_2.0/ONSemiconductor/RSL10/2.0.0//lib/ble_core/release\libblelib.a(llc_llcp.o)
                0x0010a596                llc_llcp_ping_req_pdu_send
 .text.llc_llcp_ping_rsp_pdu_send
                0x0010a5ac       0x16 C:/Users/fg7fww/_Install/App/DemoBoards/RSL10/Packages_RSL10_2.0/ONSemiconductor/RSL10/2.0.0//lib/ble_core/release\libblelib.a(llc_llcp.o)
                0x0010a5ac                llc_llcp_ping_rsp_pdu_send
 *fill*         0x0010a5c2        0x2 
 .text.llcp_ping_req_handler
                0x0010a5c4       0x24 C:/Users/fg7fww/_Install/App/DemoBoards/RSL10/Packages_RSL10_2.0/ONSemiconductor/RSL10/2.0.0//lib/ble_core/release\libblelib.a(llc_llcp.o)
 .text.llc_llcp_length_req_pdu_send
                0x0010a5e8       0x40 C:/Users/fg7fww/_Install/App/DemoBoards/RSL10/Packages_RSL10_2.0/ONSemiconductor/RSL10/2.0.0//lib/ble_core/release\libblelib.a(llc_llcp.o)
                0x0010a5e8                llc_llcp_length_req_pdu_send
 .text.llc_llcp_length_rsp_pdu_send
                0x0010a628       0x40 C:/Users/fg7fww/_Install/App/DemoBoards/RSL10/Packages_RSL10_2.0/ONSemiconductor/RSL10/2.0.0//lib/ble_core/release\libblelib.a(llc_llcp.o)
                0x0010a628                llc_llcp_length_rsp_pdu_send
 .text.llcp_length_req_handler
                0x0010a668      0x104 C:/Users/fg7fww/_Install/App/DemoBoards/RSL10/Packages_RSL10_2.0/ONSemiconductor/RSL10/2.0.0//lib/ble_core/release\libblelib.a(llc_llcp.o)
 .text.llc_llcp_phy_req_pdu_send
                0x0010a76c       0x22 C:/Users/fg7fww/_Install/App/DemoBoards/RSL10/Packages_RSL10_2.0/ONSemiconductor/RSL10/2.0.0//lib/ble_core/release\libblelib.a(llc_llcp.o)
                0x0010a76c                llc_llcp_phy_req_pdu_send
 .text.llc_llcp_phy_rsp_pdu_send
                0x0010a78e       0x22 C:/Users/fg7fww/_Install/App/DemoBoards/RSL10/Packages_RSL10_2.0/ONSemiconductor/RSL10/2.0.0//lib/ble_core/release\libblelib.a(llc_llcp.o)
                0x0010a78e                llc_llcp_phy_rsp_pdu_send
 .text.llcp_phy_req_handler
                0x0010a7b0      0x174 C:/Users/fg7fww/_Install/App/DemoBoards/RSL10/Packages_RSL10_2.0/ONSemiconductor/RSL10/2.0.0//lib/ble_core/release\libblelib.a(llc_llcp.o)
 .text.llc_llcp_phy_upd_ind_pdu_send
                0x0010a924       0x28 C:/Users/fg7fww/_Install/App/DemoBoards/RSL10/Packages_RSL10_2.0/ONSemiconductor/RSL10/2.0.0//lib/ble_core/release\libblelib.a(llc_llcp.o)
                0x0010a924                llc_llcp_phy_upd_ind_pdu_send
 .text.llc_llcp_recv_handler
                0x0010a94c       0x98 C:/Users/fg7fww/_Install/App/DemoBoards/RSL10/Packages_RSL10_2.0/ONSemiconductor/RSL10/2.0.0//lib/ble_core/release\libblelib.a(llc_llcp.o)
                0x0010a94c                llc_llcp_recv_handler
 .text.llc_llcp_get_autorize
                0x0010a9e4       0x14 C:/Users/fg7fww/_Install/App/DemoBoards/RSL10/Packages_RSL10_2.0/ONSemiconductor/RSL10/2.0.0//lib/ble_core/release\libblelib.a(llc_llcp.o)
                0x0010a9e4                llc_llcp_get_autorize
 .text.llc_dft_handler
                0x0010a9f8        0x4 C:/Users/fg7fww/_Install/App/DemoBoards/RSL10/Packages_RSL10_2.0/ONSemiconductor/RSL10/2.0.0//lib/ble_core/release\libblelib.a(llc_task.o)
 .text.llm_enc_ind_handler
                0x0010a9fc       0xc8 C:/Users/fg7fww/_Install/App/DemoBoards/RSL10/Packages_RSL10_2.0/ONSemiconductor/RSL10/2.0.0//lib/ble_core/release\libblelib.a(llc_task.o)
 .text.llc_llcp_recv_ind_handler
                0x0010aac4        0xc C:/Users/fg7fww/_Install/App/DemoBoards/RSL10/Packages_RSL10_2.0/ONSemiconductor/RSL10/2.0.0//lib/ble_core/release\libblelib.a(llc_task.o)
 .text.llc_phy_upd_req_ind_handler
                0x0010aad0      0x308 C:/Users/fg7fww/_Install/App/DemoBoards/RSL10/Packages_RSL10_2.0/ONSemiconductor/RSL10/2.0.0//lib/ble_core/release\libblelib.a(llc_task.o)
 .text.llc_chmap_update_req_ind_handler
                0x0010add8       0x68 C:/Users/fg7fww/_Install/App/DemoBoards/RSL10/Packages_RSL10_2.0/ONSemiconductor/RSL10/2.0.0//lib/ble_core/release\libblelib.a(llc_task.o)
 .text.llc_auth_payl_real_to_ind_handler
                0x0010ae40       0x5c C:/Users/fg7fww/_Install/App/DemoBoards/RSL10/Packages_RSL10_2.0/ONSemiconductor/RSL10/2.0.0//lib/ble_core/release\libblelib.a(llc_task.o)
 .text.llc_con_upd_req_ind_handler
                0x0010ae9c      0x1d0 C:/Users/fg7fww/_Install/App/DemoBoards/RSL10/Packages_RSL10_2.0/ONSemiconductor/RSL10/2.0.0//lib/ble_core/release\libblelib.a(llc_task.o)
 .text.llc_length_req_ind_handler
                0x0010b06c       0x80 C:/Users/fg7fww/_Install/App/DemoBoards/RSL10/Packages_RSL10_2.0/ONSemiconductor/RSL10/2.0.0//lib/ble_core/release\libblelib.a(llc_task.o)
 .text.llc_task_random_gen_request
                0x0010b0ec       0x32 C:/Users/fg7fww/_Install/App/DemoBoards/RSL10/Packages_RSL10_2.0/ONSemiconductor/RSL10/2.0.0//lib/ble_core/release\libblelib.a(llc_task.o)
 *fill*         0x0010b11e        0x2 
 .text.llc_enc_mgt_ind_handler
                0x0010b120      0x210 C:/Users/fg7fww/_Install/App/DemoBoards/RSL10/Packages_RSL10_2.0/ONSemiconductor/RSL10/2.0.0//lib/ble_core/release\libblelib.a(llc_task.o)
 .text.llc_chnl_assess_timer_handler
                0x0010b330       0x8c C:/Users/fg7fww/_Install/App/DemoBoards/RSL10/Packages_RSL10_2.0/ONSemiconductor/RSL10/2.0.0//lib/ble_core/release\libblelib.a(llc_task.o)
 .text.llc_llcp_rsp_to_ind_handler
                0x0010b3bc        0xe C:/Users/fg7fww/_Install/App/DemoBoards/RSL10/Packages_RSL10_2.0/ONSemiconductor/RSL10/2.0.0//lib/ble_core/release\libblelib.a(llc_task.o)
 .text.llc_link_sup_to_ind_handler
                0x0010b3ca       0x20 C:/Users/fg7fww/_Install/App/DemoBoards/RSL10/Packages_RSL10_2.0/ONSemiconductor/RSL10/2.0.0//lib/ble_core/release\libblelib.a(llc_task.o)
 *fill*         0x0010b3ea        0x2 
 .text.llc_auth_payl_nearly_to_ind_handler
                0x0010b3ec       0x74 C:/Users/fg7fww/_Install/App/DemoBoards/RSL10/Packages_RSL10_2.0/ONSemiconductor/RSL10/2.0.0//lib/ble_core/release\libblelib.a(llc_task.o)
 .text.llc_data_ind_handler
                0x0010b460       0x58 C:/Users/fg7fww/_Install/App/DemoBoards/RSL10/Packages_RSL10_2.0/ONSemiconductor/RSL10/2.0.0//lib/ble_core/release\libblelib.a(llc_task.o)
 .text.lld_stop_ind_handler
                0x0010b4b8      0x120 C:/Users/fg7fww/_Install/App/DemoBoards/RSL10/Packages_RSL10_2.0/ONSemiconductor/RSL10/2.0.0//lib/ble_core/release\libblelib.a(llc_task.o)
 .text.llc_check_trafic_paused
                0x0010b5d8       0x48 C:/Users/fg7fww/_Install/App/DemoBoards/RSL10/Packages_RSL10_2.0/ONSemiconductor/RSL10/2.0.0//lib/ble_core/release\libblelib.a(llc_util.o)
 .text.llc_util_get_free_conhdl
                0x0010b620       0x2a C:/Users/fg7fww/_Install/App/DemoBoards/RSL10/Packages_RSL10_2.0/ONSemiconductor/RSL10/2.0.0//lib/ble_core/release\libblelib.a(llc_util.o)
                0x0010b620                llc_util_get_free_conhdl
 .text.llc_util_get_nb_active_link
                0x0010b64a       0x28 C:/Users/fg7fww/_Install/App/DemoBoards/RSL10/Packages_RSL10_2.0/ONSemiconductor/RSL10/2.0.0//lib/ble_core/release\libblelib.a(llc_util.o)
                0x0010b64a                llc_util_get_nb_active_link
 *fill*         0x0010b672        0x2 
 .text.llc_util_dicon_procedure
                0x0010b674       0x3c C:/Users/fg7fww/_Install/App/DemoBoards/RSL10/Packages_RSL10_2.0/ONSemiconductor/RSL10/2.0.0//lib/ble_core/release\libblelib.a(llc_util.o)
                0x0010b674                llc_util_dicon_procedure
 .text.llc_util_update_channel_map
                0x0010b6b0       0x18 C:/Users/fg7fww/_Install/App/DemoBoards/RSL10/Packages_RSL10_2.0/ONSemiconductor/RSL10/2.0.0//lib/ble_core/release\libblelib.a(llc_util.o)
                0x0010b6b0                llc_util_update_channel_map
 .text.llc_util_set_auth_payl_to_margin
                0x0010b6c8       0x34 C:/Users/fg7fww/_Install/App/DemoBoards/RSL10/Packages_RSL10_2.0/ONSemiconductor/RSL10/2.0.0//lib/ble_core/release\libblelib.a(llc_util.o)
                0x0010b6c8                llc_util_set_auth_payl_to_margin
 .text.llc_util_clear_operation_ptr
                0x0010b6fc       0x20 C:/Users/fg7fww/_Install/App/DemoBoards/RSL10/Packages_RSL10_2.0/ONSemiconductor/RSL10/2.0.0//lib/ble_core/release\libblelib.a(llc_util.o)
                0x0010b6fc                llc_util_clear_operation_ptr
 .text.llc_util_bw_mgt
                0x0010b71c       0x60 C:/Users/fg7fww/_Install/App/DemoBoards/RSL10/Packages_RSL10_2.0/ONSemiconductor/RSL10/2.0.0//lib/ble_core/release\libblelib.a(llc_util.o)
                0x0010b71c                llc_util_bw_mgt
 .text.llc_end_evt_defer
                0x0010b77c       0x50 C:/Users/fg7fww/_Install/App/DemoBoards/RSL10/Packages_RSL10_2.0/ONSemiconductor/RSL10/2.0.0//lib/ble_core/release\libblelib.a(llc_util.o)
                0x0010b77c                llc_end_evt_defer
 .text.llc_pdu_llcp_tx_ack_defer
                0x0010b7cc       0xd4 C:/Users/fg7fww/_Install/App/DemoBoards/RSL10/Packages_RSL10_2.0/ONSemiconductor/RSL10/2.0.0//lib/ble_core/release\libblelib.a(llc_util.o)
                0x0010b7cc                llc_pdu_llcp_tx_ack_defer
 .text.llc_pdu_acl_tx_ack_defer
                0x0010b8a0       0x24 C:/Users/fg7fww/_Install/App/DemoBoards/RSL10/Packages_RSL10_2.0/ONSemiconductor/RSL10/2.0.0//lib/ble_core/release\libblelib.a(llc_util.o)
                0x0010b8a0                llc_pdu_acl_tx_ack_defer
 .text.llc_pdu_defer
                0x0010b8c4       0xd4 C:/Users/fg7fww/_Install/App/DemoBoards/RSL10/Packages_RSL10_2.0/ONSemiconductor/RSL10/2.0.0//lib/ble_core/release\libblelib.a(llc_util.o)
                0x0010b8c4                llc_pdu_defer
 .text.em_buf_init
                0x0010b998       0xec C:/Users/fg7fww/_Install/App/DemoBoards/RSL10/Packages_RSL10_2.0/ONSemiconductor/RSL10/2.0.0//lib/ble_core/release\libblelib.a(em_buf.o)
                0x0010b998                em_buf_init
 .text.em_buf_rx_free
                0x0010ba84       0x14 C:/Users/fg7fww/_Install/App/DemoBoards/RSL10/Packages_RSL10_2.0/ONSemiconductor/RSL10/2.0.0//lib/ble_core/release\libblelib.a(em_buf.o)
                0x0010ba84                em_buf_rx_free
 .text.em_buf_rx_buff_addr_get
                0x0010ba98       0x18 C:/Users/fg7fww/_Install/App/DemoBoards/RSL10/Packages_RSL10_2.0/ONSemiconductor/RSL10/2.0.0//lib/ble_core/release\libblelib.a(em_buf.o)
                0x0010ba98                em_buf_rx_buff_addr_get
 .text.em_buf_tx_free
                0x0010bab0       0x64 C:/Users/fg7fww/_Install/App/DemoBoards/RSL10/Packages_RSL10_2.0/ONSemiconductor/RSL10/2.0.0//lib/ble_core/release\libblelib.a(em_buf.o)
                0x0010bab0                em_buf_tx_free
 .text.rwble_hl_init
                0x0010bb14       0x1e C:/Users/fg7fww/_Install/App/DemoBoards/RSL10/Packages_RSL10_2.0/ONSemiconductor/RSL10/2.0.0//lib/ble_core/release\libblelib.a(rwble_hl.o)
                0x0010bb14                rwble_hl_init
 .text.rwble_hl_reset
                0x0010bb32       0x1e C:/Users/fg7fww/_Install/App/DemoBoards/RSL10/Packages_RSL10_2.0/ONSemiconductor/RSL10/2.0.0//lib/ble_core/release\libblelib.a(rwble_hl.o)
                0x0010bb32                rwble_hl_reset
 .text.l2cm_l2cap_tx_handler
                0x0010bb50       0x48 C:/Users/fg7fww/_Install/App/DemoBoards/RSL10/Packages_RSL10_2.0/ONSemiconductor/RSL10/2.0.0//lib/ble_core/release\libblelib.a(l2cm.o)
 .text.l2cm_init
                0x0010bb98       0x30 C:/Users/fg7fww/_Install/App/DemoBoards/RSL10/Packages_RSL10_2.0/ONSemiconductor/RSL10/2.0.0//lib/ble_core/release\libblelib.a(l2cm.o)
                0x0010bb98                l2cm_init
 .text.l2cm_set_link_layer_buff_size
                0x0010bbc8       0x10 C:/Users/fg7fww/_Install/App/DemoBoards/RSL10/Packages_RSL10_2.0/ONSemiconductor/RSL10/2.0.0//lib/ble_core/release\libblelib.a(l2cm.o)
                0x0010bbc8                l2cm_set_link_layer_buff_size
 .text.l2cm_get_nb_buffer_available
                0x0010bbd8        0xc C:/Users/fg7fww/_Install/App/DemoBoards/RSL10/Packages_RSL10_2.0/ONSemiconductor/RSL10/2.0.0//lib/ble_core/release\libblelib.a(l2cm.o)
                0x0010bbd8                l2cm_get_nb_buffer_available
 .text.l2cm_tx_status
                0x0010bbe4       0x30 C:/Users/fg7fww/_Install/App/DemoBoards/RSL10/Packages_RSL10_2.0/ONSemiconductor/RSL10/2.0.0//lib/ble_core/release\libblelib.a(l2cm.o)
                0x0010bbe4                l2cm_tx_status
 .text.l2cm_create
                0x0010bc14       0x14 C:/Users/fg7fww/_Install/App/DemoBoards/RSL10/Packages_RSL10_2.0/ONSemiconductor/RSL10/2.0.0//lib/ble_core/release\libblelib.a(l2cm.o)
                0x0010bc14                l2cm_create
 .text.l2cm_cleanup
                0x0010bc28       0x16 C:/Users/fg7fww/_Install/App/DemoBoards/RSL10/Packages_RSL10_2.0/ONSemiconductor/RSL10/2.0.0//lib/ble_core/release\libblelib.a(l2cm.o)
                0x0010bc28                l2cm_cleanup
 *fill*         0x0010bc3e        0x2 
 .text.l2cc_create
                0x0010bc40       0x3c C:/Users/fg7fww/_Install/App/DemoBoards/RSL10/Packages_RSL10_2.0/ONSemiconductor/RSL10/2.0.0//lib/ble_core/release\libblelib.a(l2cc.o)
                0x0010bc40                l2cc_create
 .text.l2cc_update_state
                0x0010bc7c       0x2a C:/Users/fg7fww/_Install/App/DemoBoards/RSL10/Packages_RSL10_2.0/ONSemiconductor/RSL10/2.0.0//lib/ble_core/release\libblelib.a(l2cc.o)
                0x0010bc7c                l2cc_update_state
 *fill*         0x0010bca6        0x2 
 .text.l2cc_send_complete_evt
                0x0010bca8       0x60 C:/Users/fg7fww/_Install/App/DemoBoards/RSL10/Packages_RSL10_2.0/ONSemiconductor/RSL10/2.0.0//lib/ble_core/release\libblelib.a(l2cc.o)
                0x0010bca8                l2cc_send_complete_evt
 .text.l2cc_send_error_evt
                0x0010bd08       0x2e C:/Users/fg7fww/_Install/App/DemoBoards/RSL10/Packages_RSL10_2.0/ONSemiconductor/RSL10/2.0.0//lib/ble_core/release\libblelib.a(l2cc.o)
                0x0010bd08                l2cc_send_error_evt
 *fill*         0x0010bd36        0x2 
 .text.l2cc_cleanup
                0x0010bd38       0xac C:/Users/fg7fww/_Install/App/DemoBoards/RSL10/Packages_RSL10_2.0/ONSemiconductor/RSL10/2.0.0//lib/ble_core/release\libblelib.a(l2cc.o)
                0x0010bd38                l2cc_cleanup
 .text.l2cc_init
                0x0010bde4       0x34 C:/Users/fg7fww/_Install/App/DemoBoards/RSL10/Packages_RSL10_2.0/ONSemiconductor/RSL10/2.0.0//lib/ble_core/release\libblelib.a(l2cc.o)
                0x0010bde4                l2cc_init
 .text.l2cc_get_operation
                0x0010be18       0x14 C:/Users/fg7fww/_Install/App/DemoBoards/RSL10/Packages_RSL10_2.0/ONSemiconductor/RSL10/2.0.0//lib/ble_core/release\libblelib.a(l2cc.o)
                0x0010be18                l2cc_get_operation
 .text.l2cc_get_operation_ptr
                0x0010be2c       0x10 C:/Users/fg7fww/_Install/App/DemoBoards/RSL10/Packages_RSL10_2.0/ONSemiconductor/RSL10/2.0.0//lib/ble_core/release\libblelib.a(l2cc.o)
                0x0010be2c                l2cc_get_operation_ptr
 .text.l2cc_set_operation_ptr
                0x0010be3c       0x10 C:/Users/fg7fww/_Install/App/DemoBoards/RSL10/Packages_RSL10_2.0/ONSemiconductor/RSL10/2.0.0//lib/ble_core/release\libblelib.a(l2cc.o)
                0x0010be3c                l2cc_set_operation_ptr
 .text.l2cc_data_send
                0x0010be4c      0x24c C:/Users/fg7fww/_Install/App/DemoBoards/RSL10/Packages_RSL10_2.0/ONSemiconductor/RSL10/2.0.0//lib/ble_core/release\libblelib.a(l2cc.o)
                0x0010be4c                l2cc_data_send
 .text.l2cc_lecb_h2l_err
                0x0010c098       0x30 C:/Users/fg7fww/_Install/App/DemoBoards/RSL10/Packages_RSL10_2.0/ONSemiconductor/RSL10/2.0.0//lib/ble_core/release\libblelib.a(l2cc_lecb.o)
                0x0010c098                l2cc_lecb_h2l_err
 .text.l2cc_lecb_find
                0x0010c0c8       0x38 C:/Users/fg7fww/_Install/App/DemoBoards/RSL10/Packages_RSL10_2.0/ONSemiconductor/RSL10/2.0.0//lib/ble_core/release\libblelib.a(l2cc_lecb.o)
                0x0010c0c8                l2cc_lecb_find
 .text.l2cc_lecb_free
                0x0010c100       0xc4 C:/Users/fg7fww/_Install/App/DemoBoards/RSL10/Packages_RSL10_2.0/ONSemiconductor/RSL10/2.0.0//lib/ble_core/release\libblelib.a(l2cc_lecb.o)
                0x0010c100                l2cc_lecb_free
 .text.l2cc_lecb_init_disconnect
                0x0010c1c4       0x36 C:/Users/fg7fww/_Install/App/DemoBoards/RSL10/Packages_RSL10_2.0/ONSemiconductor/RSL10/2.0.0//lib/ble_core/release\libblelib.a(l2cc_lecb.o)
                0x0010c1c4                l2cc_lecb_init_disconnect
 .text.l2cc_lecb_send_con_req
                0x0010c1fa       0x54 C:/Users/fg7fww/_Install/App/DemoBoards/RSL10/Packages_RSL10_2.0/ONSemiconductor/RSL10/2.0.0//lib/ble_core/release\libblelib.a(l2cc_lecb.o)
                0x0010c1fa                l2cc_lecb_send_con_req
 .text.l2cc_lecb_send_con_rsp
                0x0010c24e       0x42 C:/Users/fg7fww/_Install/App/DemoBoards/RSL10/Packages_RSL10_2.0/ONSemiconductor/RSL10/2.0.0//lib/ble_core/release\libblelib.a(l2cc_lecb.o)
                0x0010c24e                l2cc_lecb_send_con_rsp
 .text.l2cc_lecb_send_disc_req
                0x0010c290       0x3a C:/Users/fg7fww/_Install/App/DemoBoards/RSL10/Packages_RSL10_2.0/ONSemiconductor/RSL10/2.0.0//lib/ble_core/release\libblelib.a(l2cc_lecb.o)
                0x0010c290                l2cc_lecb_send_disc_req
 .text.l2cc_lecb_send_disc_rsp
                0x0010c2ca       0x2a C:/Users/fg7fww/_Install/App/DemoBoards/RSL10/Packages_RSL10_2.0/ONSemiconductor/RSL10/2.0.0//lib/ble_core/release\libblelib.a(l2cc_lecb.o)
                0x0010c2ca                l2cc_lecb_send_disc_rsp
 .text.l2cc_lecb_send_credit_add
                0x0010c2f4       0x2a C:/Users/fg7fww/_Install/App/DemoBoards/RSL10/Packages_RSL10_2.0/ONSemiconductor/RSL10/2.0.0//lib/ble_core/release\libblelib.a(l2cc_lecb.o)
                0x0010c2f4                l2cc_lecb_send_credit_add
 *fill*         0x0010c31e        0x2 
 .text.l2cc_lecb_pdu_pack
                0x0010c320       0x6c C:/Users/fg7fww/_Install/App/DemoBoards/RSL10/Packages_RSL10_2.0/ONSemiconductor/RSL10/2.0.0//lib/ble_core/release\libblelib.a(l2cc_pdu.o)
                0x0010c320                l2cc_lecb_pdu_pack
 .text.l2cc_lecb_pdu_unpack
                0x0010c38c       0x4c C:/Users/fg7fww/_Install/App/DemoBoards/RSL10/Packages_RSL10_2.0/ONSemiconductor/RSL10/2.0.0//lib/ble_core/release\libblelib.a(l2cc_pdu.o)
                0x0010c38c                l2cc_lecb_pdu_unpack
 .text.l2cc_pdu_pack
                0x0010c3d8      0x2a0 C:/Users/fg7fww/_Install/App/DemoBoards/RSL10/Packages_RSL10_2.0/ONSemiconductor/RSL10/2.0.0//lib/ble_core/release\libblelib.a(l2cc_pdu.o)
                0x0010c3d8                l2cc_pdu_pack
 .text.l2cc_pdu_unpack
                0x0010c678      0x290 C:/Users/fg7fww/_Install/App/DemoBoards/RSL10/Packages_RSL10_2.0/ONSemiconductor/RSL10/2.0.0//lib/ble_core/release\libblelib.a(l2cc_pdu.o)
                0x0010c678                l2cc_pdu_unpack
 .text.l2cc_pdu_header_check
                0x0010c908      0x238 C:/Users/fg7fww/_Install/App/DemoBoards/RSL10/Packages_RSL10_2.0/ONSemiconductor/RSL10/2.0.0//lib/ble_core/release\libblelib.a(l2cc_pdu.o)
                0x0010c908                l2cc_pdu_header_check
 .text.l2cc_default_msg_handler
                0x0010cb40        0x4 C:/Users/fg7fww/_Install/App/DemoBoards/RSL10/Packages_RSL10_2.0/ONSemiconductor/RSL10/2.0.0//lib/ble_core/release\libblelib.a(l2cc_task.o)
 .text.l2cc_dbg_pdu_send_cmd_handler
                0x0010cb44       0x3c C:/Users/fg7fww/_Install/App/DemoBoards/RSL10/Packages_RSL10_2.0/ONSemiconductor/RSL10/2.0.0//lib/ble_core/release\libblelib.a(l2cc_task.o)
 .text.l2cc_pdu_recv_ind_handler
                0x0010cb80       0x6a C:/Users/fg7fww/_Install/App/DemoBoards/RSL10/Packages_RSL10_2.0/ONSemiconductor/RSL10/2.0.0//lib/ble_core/release\libblelib.a(l2cc_task.o)
 *fill*         0x0010cbea        0x2 
 .text.hci_acl_data_rx_handler
                0x0010cbec       0xf0 C:/Users/fg7fww/_Install/App/DemoBoards/RSL10/Packages_RSL10_2.0/ONSemiconductor/RSL10/2.0.0//lib/ble_core/release\libblelib.a(l2cc_task.o)
 .text.l2cc_signaling_trans_to_ind_handler
                0x0010ccdc       0x46 C:/Users/fg7fww/_Install/App/DemoBoards/RSL10/Packages_RSL10_2.0/ONSemiconductor/RSL10/2.0.0//lib/ble_core/release\libblelib.a(l2cc_task.o)
 *fill*         0x0010cd22        0x2 
 .text.l2cc_lecb_sdu_send_cmd_handler
                0x0010cd24       0x80 C:/Users/fg7fww/_Install/App/DemoBoards/RSL10/Packages_RSL10_2.0/ONSemiconductor/RSL10/2.0.0//lib/ble_core/release\libblelib.a(l2cc_task.o)
 .text.l2cc_pdu_send_cmd_handler
                0x0010cda4       0x58 C:/Users/fg7fww/_Install/App/DemoBoards/RSL10/Packages_RSL10_2.0/ONSemiconductor/RSL10/2.0.0//lib/ble_core/release\libblelib.a(l2cc_task.o)
 .text.hci_nb_cmp_pkts_evt_handler
                0x0010cdfc       0x40 C:/Users/fg7fww/_Install/App/DemoBoards/RSL10/Packages_RSL10_2.0/ONSemiconductor/RSL10/2.0.0//lib/ble_core/release\libblelib.a(l2cc_task.o)
 .text.l2cc_lecb_connect_cfm_handler
                0x0010ce3c      0x146 C:/Users/fg7fww/_Install/App/DemoBoards/RSL10/Packages_RSL10_2.0/ONSemiconductor/RSL10/2.0.0//lib/ble_core/release\libblelib.a(l2cc_task.o)
 .text.l2cc_process_op
                0x0010cf82       0x8c C:/Users/fg7fww/_Install/App/DemoBoards/RSL10/Packages_RSL10_2.0/ONSemiconductor/RSL10/2.0.0//lib/ble_core/release\libblelib.a(l2cc_task.o)
                0x0010cf82                l2cc_process_op
 .text.l2cc_lecb_disconnect_cmd_handler
                0x0010d00e       0x82 C:/Users/fg7fww/_Install/App/DemoBoards/RSL10/Packages_RSL10_2.0/ONSemiconductor/RSL10/2.0.0//lib/ble_core/release\libblelib.a(l2cc_task.o)
 .text.l2cc_lecb_add_cmd_handler
                0x0010d090       0x82 C:/Users/fg7fww/_Install/App/DemoBoards/RSL10/Packages_RSL10_2.0/ONSemiconductor/RSL10/2.0.0//lib/ble_core/release\libblelib.a(l2cc_task.o)
 *fill*         0x0010d112        0x2 
 .text.l2cc_lecb_connect_cmd_handler
                0x0010d114      0x134 C:/Users/fg7fww/_Install/App/DemoBoards/RSL10/Packages_RSL10_2.0/ONSemiconductor/RSL10/2.0.0//lib/ble_core/release\libblelib.a(l2cc_task.o)
 .text.l2cc_pdu_alloc
                0x0010d248       0x2a C:/Users/fg7fww/_Install/App/DemoBoards/RSL10/Packages_RSL10_2.0/ONSemiconductor/RSL10/2.0.0//lib/ble_core/release\libblelib.a(l2cc_task.o)
                0x0010d248                l2cc_pdu_alloc
 .text.l2cc_pdu_send
                0x0010d272        0x6 C:/Users/fg7fww/_Install/App/DemoBoards/RSL10/Packages_RSL10_2.0/ONSemiconductor/RSL10/2.0.0//lib/ble_core/release\libblelib.a(l2cc_task.o)
                0x0010d272                l2cc_pdu_send
 .text.gattm_svc_get_start_hdl
                0x0010d278        0xc C:/Users/fg7fww/_Install/App/DemoBoards/RSL10/Packages_RSL10_2.0/ONSemiconductor/RSL10/2.0.0//lib/ble_core/release\libblelib.a(gattm.o)
                0x0010d278                gattm_svc_get_start_hdl
 .text.gattm_init
                0x0010d284       0x24 C:/Users/fg7fww/_Install/App/DemoBoards/RSL10/Packages_RSL10_2.0/ONSemiconductor/RSL10/2.0.0//lib/ble_core/release\libblelib.a(gattm.o)
                0x0010d284                gattm_init
 .text.gattm_init_attr
                0x0010d2a8       0x6c C:/Users/fg7fww/_Install/App/DemoBoards/RSL10/Packages_RSL10_2.0/ONSemiconductor/RSL10/2.0.0//lib/ble_core/release\libblelib.a(gattm.o)
                0x0010d2a8                gattm_init_attr
 .text.gattm_create
                0x0010d314        0x4 C:/Users/fg7fww/_Install/App/DemoBoards/RSL10/Packages_RSL10_2.0/ONSemiconductor/RSL10/2.0.0//lib/ble_core/release\libblelib.a(gattm.o)
                0x0010d314                gattm_create
 .text.gattm_cleanup
                0x0010d318        0x6 C:/Users/fg7fww/_Install/App/DemoBoards/RSL10/Packages_RSL10_2.0/ONSemiconductor/RSL10/2.0.0//lib/ble_core/release\libblelib.a(gattm.o)
                0x0010d318                gattm_cleanup
 .text.gattm_default_msg_handler
                0x0010d31e        0x4 C:/Users/fg7fww/_Install/App/DemoBoards/RSL10/Packages_RSL10_2.0/ONSemiconductor/RSL10/2.0.0//lib/ble_core/release\libblelib.a(gattm_task.o)
 .text.gattm_att_set_value_req_handler
                0x0010d322       0x2e C:/Users/fg7fww/_Install/App/DemoBoards/RSL10/Packages_RSL10_2.0/ONSemiconductor/RSL10/2.0.0//lib/ble_core/release\libblelib.a(gattm_task.o)
 .text.gattm_att_get_value_req_handler
                0x0010d350       0x56 C:/Users/fg7fww/_Install/App/DemoBoards/RSL10/Packages_RSL10_2.0/ONSemiconductor/RSL10/2.0.0//lib/ble_core/release\libblelib.a(gattm_task.o)
 .text.gattm_att_set_permission_req_handler
                0x0010d3a6       0x2c C:/Users/fg7fww/_Install/App/DemoBoards/RSL10/Packages_RSL10_2.0/ONSemiconductor/RSL10/2.0.0//lib/ble_core/release\libblelib.a(gattm_task.o)
 .text.gattm_att_get_permission_req_handler
                0x0010d3d2       0x46 C:/Users/fg7fww/_Install/App/DemoBoards/RSL10/Packages_RSL10_2.0/ONSemiconductor/RSL10/2.0.0//lib/ble_core/release\libblelib.a(gattm_task.o)
 .text.gattm_svc_set_permission_req_handler
                0x0010d418       0x2a C:/Users/fg7fww/_Install/App/DemoBoards/RSL10/Packages_RSL10_2.0/ONSemiconductor/RSL10/2.0.0//lib/ble_core/release\libblelib.a(gattm_task.o)
 .text.gattm_svc_get_permission_req_handler
                0x0010d442       0x2a C:/Users/fg7fww/_Install/App/DemoBoards/RSL10/Packages_RSL10_2.0/ONSemiconductor/RSL10/2.0.0//lib/ble_core/release\libblelib.a(gattm_task.o)
 .text.gattm_add_svc_req_handler
                0x0010d46c       0x28 C:/Users/fg7fww/_Install/App/DemoBoards/RSL10/Packages_RSL10_2.0/ONSemiconductor/RSL10/2.0.0//lib/ble_core/release\libblelib.a(gattm_task.o)
 .text.gattc_operation_cleanup
                0x0010d494       0x6c C:/Users/fg7fww/_Install/App/DemoBoards/RSL10/Packages_RSL10_2.0/ONSemiconductor/RSL10/2.0.0//lib/ble_core/release\libblelib.a(gattc.o)
 .text.gattc_get_mtu
                0x0010d500       0x10 C:/Users/fg7fww/_Install/App/DemoBoards/RSL10/Packages_RSL10_2.0/ONSemiconductor/RSL10/2.0.0//lib/ble_core/release\libblelib.a(gattc.o)
                0x0010d500                gattc_get_mtu
 .text.gattc_set_mtu
                0x0010d510       0x48 C:/Users/fg7fww/_Install/App/DemoBoards/RSL10/Packages_RSL10_2.0/ONSemiconductor/RSL10/2.0.0//lib/ble_core/release\libblelib.a(gattc.o)
                0x0010d510                gattc_set_mtu
 .text.gattc_send_error_evt
                0x0010d558       0x2a C:/Users/fg7fww/_Install/App/DemoBoards/RSL10/Packages_RSL10_2.0/ONSemiconductor/RSL10/2.0.0//lib/ble_core/release\libblelib.a(gattc.o)
                0x0010d558                gattc_send_error_evt
 *fill*         0x0010d582        0x2 
 .text.gattc_get_operation
                0x0010d584       0x14 C:/Users/fg7fww/_Install/App/DemoBoards/RSL10/Packages_RSL10_2.0/ONSemiconductor/RSL10/2.0.0//lib/ble_core/release\libblelib.a(gattc.o)
                0x0010d584                gattc_get_operation
 .text.gattc_get_operation_ptr
                0x0010d598       0x10 C:/Users/fg7fww/_Install/App/DemoBoards/RSL10/Packages_RSL10_2.0/ONSemiconductor/RSL10/2.0.0//lib/ble_core/release\libblelib.a(gattc.o)
                0x0010d598                gattc_get_operation_ptr
 .text.gattc_set_operation_ptr
                0x0010d5a8       0x10 C:/Users/fg7fww/_Install/App/DemoBoards/RSL10/Packages_RSL10_2.0/ONSemiconductor/RSL10/2.0.0//lib/ble_core/release\libblelib.a(gattc.o)
                0x0010d5a8                gattc_set_operation_ptr
 .text.gattc_reschedule_operation
                0x0010d5b8       0x30 C:/Users/fg7fww/_Install/App/DemoBoards/RSL10/Packages_RSL10_2.0/ONSemiconductor/RSL10/2.0.0//lib/ble_core/release\libblelib.a(gattc.o)
                0x0010d5b8                gattc_reschedule_operation
 .text.gattc_get_requester
                0x0010d5e8       0x18 C:/Users/fg7fww/_Install/App/DemoBoards/RSL10/Packages_RSL10_2.0/ONSemiconductor/RSL10/2.0.0//lib/ble_core/release\libblelib.a(gattc.o)
                0x0010d5e8                gattc_get_requester
 .text.gattc_update_state
                0x0010d600       0x2a C:/Users/fg7fww/_Install/App/DemoBoards/RSL10/Packages_RSL10_2.0/ONSemiconductor/RSL10/2.0.0//lib/ble_core/release\libblelib.a(gattc.o)
                0x0010d600                gattc_update_state
 *fill*         0x0010d62a        0x2 
 .text.gattc_create
                0x0010d62c       0x84 C:/Users/fg7fww/_Install/App/DemoBoards/RSL10/Packages_RSL10_2.0/ONSemiconductor/RSL10/2.0.0//lib/ble_core/release\libblelib.a(gattc.o)
                0x0010d62c                gattc_create
 .text.gattc_con_enable
                0x0010d6b0       0x16 C:/Users/fg7fww/_Install/App/DemoBoards/RSL10/Packages_RSL10_2.0/ONSemiconductor/RSL10/2.0.0//lib/ble_core/release\libblelib.a(gattc.o)
                0x0010d6b0                gattc_con_enable
 *fill*         0x0010d6c6        0x2 
 .text.gattc_send_complete_evt
                0x0010d6c8       0x60 C:/Users/fg7fww/_Install/App/DemoBoards/RSL10/Packages_RSL10_2.0/ONSemiconductor/RSL10/2.0.0//lib/ble_core/release\libblelib.a(gattc.o)
                0x0010d6c8                gattc_send_complete_evt
 .text.gattc_cleanup
                0x0010d728       0xa0 C:/Users/fg7fww/_Install/App/DemoBoards/RSL10/Packages_RSL10_2.0/ONSemiconductor/RSL10/2.0.0//lib/ble_core/release\libblelib.a(gattc.o)
                0x0010d728                gattc_cleanup
 .text.gattc_init
                0x0010d7c8       0x34 C:/Users/fg7fww/_Install/App/DemoBoards/RSL10/Packages_RSL10_2.0/ONSemiconductor/RSL10/2.0.0//lib/ble_core/release\libblelib.a(gattc.o)
                0x0010d7c8                gattc_init
 .text.gattc_default_msg_handler
                0x0010d7fc        0xc C:/Users/fg7fww/_Install/App/DemoBoards/RSL10/Packages_RSL10_2.0/ONSemiconductor/RSL10/2.0.0//lib/ble_core/release\libblelib.a(gattc_task.o)
 .text.l2cc_cmp_evt_handler
                0x0010d808       0x44 C:/Users/fg7fww/_Install/App/DemoBoards/RSL10/Packages_RSL10_2.0/ONSemiconductor/RSL10/2.0.0//lib/ble_core/release\libblelib.a(gattc_task.o)
 .text.l2cc_pdu_recv_ind_handler
                0x0010d84c       0x62 C:/Users/fg7fww/_Install/App/DemoBoards/RSL10/Packages_RSL10_2.0/ONSemiconductor/RSL10/2.0.0//lib/ble_core/release\libblelib.a(gattc_task.o)
 *fill*         0x0010d8ae        0x2 
 .text.gapc_cmp_evt_handler
                0x0010d8b0       0x3c C:/Users/fg7fww/_Install/App/DemoBoards/RSL10/Packages_RSL10_2.0/ONSemiconductor/RSL10/2.0.0//lib/ble_core/release\libblelib.a(gattc_task.o)
 .text.gattc_read_cfm_handler
                0x0010d8ec       0x40 C:/Users/fg7fww/_Install/App/DemoBoards/RSL10/Packages_RSL10_2.0/ONSemiconductor/RSL10/2.0.0//lib/ble_core/release\libblelib.a(gattc_task.o)
 .text.gattc_disc_char_desc_ind_handler
                0x0010d92c       0x68 C:/Users/fg7fww/_Install/App/DemoBoards/RSL10/Packages_RSL10_2.0/ONSemiconductor/RSL10/2.0.0//lib/ble_core/release\libblelib.a(gattc_task.o)
 .text.gattc_disc_char_ind_handler
                0x0010d994       0x8c C:/Users/fg7fww/_Install/App/DemoBoards/RSL10/Packages_RSL10_2.0/ONSemiconductor/RSL10/2.0.0//lib/ble_core/release\libblelib.a(gattc_task.o)
 .text.gattc_disc_svc_incl_ind_handler
                0x0010da20       0x6c C:/Users/fg7fww/_Install/App/DemoBoards/RSL10/Packages_RSL10_2.0/ONSemiconductor/RSL10/2.0.0//lib/ble_core/release\libblelib.a(gattc_task.o)
 .text.gapc_sign_ind_handler
                0x0010da8c       0x8e C:/Users/fg7fww/_Install/App/DemoBoards/RSL10/Packages_RSL10_2.0/ONSemiconductor/RSL10/2.0.0//lib/ble_core/release\libblelib.a(gattc_task.o)
 .text.gattc_read_req_ind_handler
                0x0010db1a       0x5a C:/Users/fg7fww/_Install/App/DemoBoards/RSL10/Packages_RSL10_2.0/ONSemiconductor/RSL10/2.0.0//lib/ble_core/release\libblelib.a(gattc_task.o)
 .text.gattc_write_req_ind_handler
                0x0010db74       0x70 C:/Users/fg7fww/_Install/App/DemoBoards/RSL10/Packages_RSL10_2.0/ONSemiconductor/RSL10/2.0.0//lib/ble_core/release\libblelib.a(gattc_task.o)
 .text.gattc_process_op
                0x0010dbe4       0x9c C:/Users/fg7fww/_Install/App/DemoBoards/RSL10/Packages_RSL10_2.0/ONSemiconductor/RSL10/2.0.0//lib/ble_core/release\libblelib.a(gattc_task.o)
 .text.gattc_send_evt_cmd_handler
                0x0010dc80       0x5c C:/Users/fg7fww/_Install/App/DemoBoards/RSL10/Packages_RSL10_2.0/ONSemiconductor/RSL10/2.0.0//lib/ble_core/release\libblelib.a(gattc_task.o)
 .text.gattc_send_svc_changed_cmd_handler
                0x0010dcdc       0xae C:/Users/fg7fww/_Install/App/DemoBoards/RSL10/Packages_RSL10_2.0/ONSemiconductor/RSL10/2.0.0//lib/ble_core/release\libblelib.a(gattc_task.o)
 *fill*         0x0010dd8a        0x2 
 .text.gattc_att_info_cfm_handler
                0x0010dd8c       0x5c C:/Users/fg7fww/_Install/App/DemoBoards/RSL10/Packages_RSL10_2.0/ONSemiconductor/RSL10/2.0.0//lib/ble_core/release\libblelib.a(gattc_task.o)
 .text.gattc_write_cfm_handler
                0x0010dde8       0x8c C:/Users/fg7fww/_Install/App/DemoBoards/RSL10/Packages_RSL10_2.0/ONSemiconductor/RSL10/2.0.0//lib/ble_core/release\libblelib.a(gattc_task.o)
 .text.gattc_disc_svc_ind_handler
                0x0010de74       0x30 C:/Users/fg7fww/_Install/App/DemoBoards/RSL10/Packages_RSL10_2.0/ONSemiconductor/RSL10/2.0.0//lib/ble_core/release\libblelib.a(gattc_task.o)
 .text.gattc_cmp_evt_handler
                0x0010dea4      0x174 C:/Users/fg7fww/_Install/App/DemoBoards/RSL10/Packages_RSL10_2.0/ONSemiconductor/RSL10/2.0.0//lib/ble_core/release\libblelib.a(gattc_task.o)
 .text.gattc_sdp_svc_disc_cmd_handler
                0x0010e018       0xc0 C:/Users/fg7fww/_Install/App/DemoBoards/RSL10/Packages_RSL10_2.0/ONSemiconductor/RSL10/2.0.0//lib/ble_core/release\libblelib.a(gattc_task.o)
 .text.gattc_timeout_handler
                0x0010e0d8       0x6c C:/Users/fg7fww/_Install/App/DemoBoards/RSL10/Packages_RSL10_2.0/ONSemiconductor/RSL10/2.0.0//lib/ble_core/release\libblelib.a(gattc_task.o)
 .text.gattc_reg_to_peer_evt_cmd_handler
                0x0010e144       0xb0 C:/Users/fg7fww/_Install/App/DemoBoards/RSL10/Packages_RSL10_2.0/ONSemiconductor/RSL10/2.0.0//lib/ble_core/release\libblelib.a(gattc_task.o)
 .text.gattc_execute_write_cmd_handler
                0x0010e1f4       0x32 C:/Users/fg7fww/_Install/App/DemoBoards/RSL10/Packages_RSL10_2.0/ONSemiconductor/RSL10/2.0.0//lib/ble_core/release\libblelib.a(gattc_task.o)
 .text.gattc_event_cfm_handler
                0x0010e226       0x18 C:/Users/fg7fww/_Install/App/DemoBoards/RSL10/Packages_RSL10_2.0/ONSemiconductor/RSL10/2.0.0//lib/ble_core/release\libblelib.a(gattc_task.o)
 *fill*         0x0010e23e        0x2 
 .text.gattc_write_cmd_handler
                0x0010e240      0x1a4 C:/Users/fg7fww/_Install/App/DemoBoards/RSL10/Packages_RSL10_2.0/ONSemiconductor/RSL10/2.0.0//lib/ble_core/release\libblelib.a(gattc_task.o)
 .text.gattc_read_cmd_handler
                0x0010e3e4      0x12c C:/Users/fg7fww/_Install/App/DemoBoards/RSL10/Packages_RSL10_2.0/ONSemiconductor/RSL10/2.0.0//lib/ble_core/release\libblelib.a(gattc_task.o)
 .text.gattc_disc_cmd_handler
                0x0010e510      0x150 C:/Users/fg7fww/_Install/App/DemoBoards/RSL10/Packages_RSL10_2.0/ONSemiconductor/RSL10/2.0.0//lib/ble_core/release\libblelib.a(gattc_task.o)
 .text.gattc_exc_mtu_cmd_handler
                0x0010e660       0x4e C:/Users/fg7fww/_Install/App/DemoBoards/RSL10/Packages_RSL10_2.0/ONSemiconductor/RSL10/2.0.0//lib/ble_core/release\libblelib.a(gattc_task.o)
 .text.gattc_att_info_req_ind_handler
                0x0010e6ae       0x50 C:/Users/fg7fww/_Install/App/DemoBoards/RSL10/Packages_RSL10_2.0/ONSemiconductor/RSL10/2.0.0//lib/ble_core/release\libblelib.a(gattc_task.o)
 .text.atts_get_dest_task
                0x0010e6fe       0x1a C:/Users/fg7fww/_Install/App/DemoBoards/RSL10/Packages_RSL10_2.0/ONSemiconductor/RSL10/2.0.0//lib/ble_core/release\libblelib.a(atts.o)
 .text.atts_check_length_and_offset
                0x0010e718       0x2c C:/Users/fg7fww/_Install/App/DemoBoards/RSL10/Packages_RSL10_2.0/ONSemiconductor/RSL10/2.0.0//lib/ble_core/release\libblelib.a(atts.o)
 .text.atts_mtu_exc_req
                0x0010e744       0x4a C:/Users/fg7fww/_Install/App/DemoBoards/RSL10/Packages_RSL10_2.0/ONSemiconductor/RSL10/2.0.0//lib/ble_core/release\libblelib.a(atts.o)
 *fill*         0x0010e78e        0x2 
 .text.atts_get_att_chk_perm.part.0
                0x0010e790       0x94 C:/Users/fg7fww/_Install/App/DemoBoards/RSL10/Packages_RSL10_2.0/ONSemiconductor/RSL10/2.0.0//lib/ble_core/release\libblelib.a(atts.o)
 .text.atts_write_signed
                0x0010e824       0x78 C:/Users/fg7fww/_Install/App/DemoBoards/RSL10/Packages_RSL10_2.0/ONSemiconductor/RSL10/2.0.0//lib/ble_core/release\libblelib.a(atts.o)
 .text.atts_update_elmt.constprop.5
                0x0010e89c       0x42 C:/Users/fg7fww/_Install/App/DemoBoards/RSL10/Packages_RSL10_2.0/ONSemiconductor/RSL10/2.0.0//lib/ble_core/release\libblelib.a(atts.o)
 .text.atts_write_cmd
                0x0010e8de       0x3e C:/Users/fg7fww/_Install/App/DemoBoards/RSL10/Packages_RSL10_2.0/ONSemiconductor/RSL10/2.0.0//lib/ble_core/release\libblelib.a(atts.o)
 .text.atts_send_error
                0x0010e91c       0x2a C:/Users/fg7fww/_Install/App/DemoBoards/RSL10/Packages_RSL10_2.0/ONSemiconductor/RSL10/2.0.0//lib/ble_core/release\libblelib.a(atts.o)
                0x0010e91c                atts_send_error
 *fill*         0x0010e946        0x2 
 .text.atts_prepare_write_req
                0x0010e948      0x134 C:/Users/fg7fww/_Install/App/DemoBoards/RSL10/Packages_RSL10_2.0/ONSemiconductor/RSL10/2.0.0//lib/ble_core/release\libblelib.a(atts.o)
 .text.atts_write_req
                0x0010ea7c       0x48 C:/Users/fg7fww/_Install/App/DemoBoards/RSL10/Packages_RSL10_2.0/ONSemiconductor/RSL10/2.0.0//lib/ble_core/release\libblelib.a(atts.o)
 .text.atts_find_info_req
                0x0010eac4      0x160 C:/Users/fg7fww/_Install/App/DemoBoards/RSL10/Packages_RSL10_2.0/ONSemiconductor/RSL10/2.0.0//lib/ble_core/release\libblelib.a(atts.o)
 .text.atts_write_signed_cfm
                0x0010ec24       0x3e C:/Users/fg7fww/_Install/App/DemoBoards/RSL10/Packages_RSL10_2.0/ONSemiconductor/RSL10/2.0.0//lib/ble_core/release\libblelib.a(atts.o)
                0x0010ec24                atts_write_signed_cfm
 .text.atts_send_event
                0x0010ec62       0x92 C:/Users/fg7fww/_Install/App/DemoBoards/RSL10/Packages_RSL10_2.0/ONSemiconductor/RSL10/2.0.0//lib/ble_core/release\libblelib.a(atts.o)
                0x0010ec62                atts_send_event
 .text.atts_clear_prep_data
                0x0010ecf4       0x20 C:/Users/fg7fww/_Install/App/DemoBoards/RSL10/Packages_RSL10_2.0/ONSemiconductor/RSL10/2.0.0//lib/ble_core/release\libblelib.a(atts.o)
                0x0010ecf4                atts_clear_prep_data
 .text.atts_execute_write_req
                0x0010ed14      0x16c C:/Users/fg7fww/_Install/App/DemoBoards/RSL10/Packages_RSL10_2.0/ONSemiconductor/RSL10/2.0.0//lib/ble_core/release\libblelib.a(atts.o)
 .text.atts_clear_rsp_data
                0x0010ee80       0x20 C:/Users/fg7fww/_Install/App/DemoBoards/RSL10/Packages_RSL10_2.0/ONSemiconductor/RSL10/2.0.0//lib/ble_core/release\libblelib.a(atts.o)
                0x0010ee80                atts_clear_rsp_data
 .text.atts_clear_read_cache
                0x0010eea0       0x24 C:/Users/fg7fww/_Install/App/DemoBoards/RSL10/Packages_RSL10_2.0/ONSemiconductor/RSL10/2.0.0//lib/ble_core/release\libblelib.a(atts.o)
                0x0010eea0                atts_clear_read_cache
 .text.atts_get_value
                0x0010eec4       0x70 C:/Users/fg7fww/_Install/App/DemoBoards/RSL10/Packages_RSL10_2.0/ONSemiconductor/RSL10/2.0.0//lib/ble_core/release\libblelib.a(atts.o)
 .text.atts_find_value_by_uuid
                0x0010ef34      0x116 C:/Users/fg7fww/_Install/App/DemoBoards/RSL10/Packages_RSL10_2.0/ONSemiconductor/RSL10/2.0.0//lib/ble_core/release\libblelib.a(atts.o)
 *fill*         0x0010f04a        0x2 
 .text.atts_read_mult_req
                0x0010f04c      0x13c C:/Users/fg7fww/_Install/App/DemoBoards/RSL10/Packages_RSL10_2.0/ONSemiconductor/RSL10/2.0.0//lib/ble_core/release\libblelib.a(atts.o)
 .text.atts_read_blob_req
                0x0010f188       0xc4 C:/Users/fg7fww/_Install/App/DemoBoards/RSL10/Packages_RSL10_2.0/ONSemiconductor/RSL10/2.0.0//lib/ble_core/release\libblelib.a(atts.o)
 .text.atts_read_req
                0x0010f24c       0xa4 C:/Users/fg7fww/_Install/App/DemoBoards/RSL10/Packages_RSL10_2.0/ONSemiconductor/RSL10/2.0.0//lib/ble_core/release\libblelib.a(atts.o)
 .text.atts_read_by_grp_type_req
                0x0010f2f0      0x1c0 C:/Users/fg7fww/_Install/App/DemoBoards/RSL10/Packages_RSL10_2.0/ONSemiconductor/RSL10/2.0.0//lib/ble_core/release\libblelib.a(atts.o)
 .text.atts_read_by_type_req
                0x0010f4b0      0x1b0 C:/Users/fg7fww/_Install/App/DemoBoards/RSL10/Packages_RSL10_2.0/ONSemiconductor/RSL10/2.0.0//lib/ble_core/release\libblelib.a(atts.o)
 .text.atts_find_by_type_req
                0x0010f660      0x180 C:/Users/fg7fww/_Install/App/DemoBoards/RSL10/Packages_RSL10_2.0/ONSemiconductor/RSL10/2.0.0//lib/ble_core/release\libblelib.a(atts.o)
 .text.atts_write_rsp_send
                0x0010f7e0       0x2e C:/Users/fg7fww/_Install/App/DemoBoards/RSL10/Packages_RSL10_2.0/ONSemiconductor/RSL10/2.0.0//lib/ble_core/release\libblelib.a(atts.o)
                0x0010f7e0                atts_write_rsp_send
 *fill*         0x0010f80e        0x2 
 .text.atts_process_pdu
                0x0010f810       0x68 C:/Users/fg7fww/_Install/App/DemoBoards/RSL10/Packages_RSL10_2.0/ONSemiconductor/RSL10/2.0.0//lib/ble_core/release\libblelib.a(atts.o)
                0x0010f810                atts_process_pdu
 .text.atts_l2cc_pdu_recv_handler
                0x0010f878       0x94 C:/Users/fg7fww/_Install/App/DemoBoards/RSL10/Packages_RSL10_2.0/ONSemiconductor/RSL10/2.0.0//lib/ble_core/release\libblelib.a(atts.o)
                0x0010f878                atts_l2cc_pdu_recv_handler
 .text.attm_convert_to128
                0x0010f90c       0x5c C:/Users/fg7fww/_Install/App/DemoBoards/RSL10/Packages_RSL10_2.0/ONSemiconductor/RSL10/2.0.0//lib/ble_core/release\libblelib.a(attm.o)
                0x0010f90c                attm_convert_to128
 .text.attm_uuid_comp
                0x0010f968       0x56 C:/Users/fg7fww/_Install/App/DemoBoards/RSL10/Packages_RSL10_2.0/ONSemiconductor/RSL10/2.0.0//lib/ble_core/release\libblelib.a(attm.o)
                0x0010f968                attm_uuid_comp
 .text.attm_uuid16_comp
                0x0010f9be       0x14 C:/Users/fg7fww/_Install/App/DemoBoards/RSL10/Packages_RSL10_2.0/ONSemiconductor/RSL10/2.0.0//lib/ble_core/release\libblelib.a(attm.o)
                0x0010f9be                attm_uuid16_comp
 *fill*         0x0010f9d2        0x2 
 .text.attm_is_bt16_uuid
                0x0010f9d4       0x38 C:/Users/fg7fww/_Install/App/DemoBoards/RSL10/Packages_RSL10_2.0/ONSemiconductor/RSL10/2.0.0//lib/ble_core/release\libblelib.a(attm.o)
                0x0010f9d4                attm_is_bt16_uuid
 .text.attm_is_bt32_uuid
                0x0010fa0c       0x38 C:/Users/fg7fww/_Install/App/DemoBoards/RSL10/Packages_RSL10_2.0/ONSemiconductor/RSL10/2.0.0//lib/ble_core/release\libblelib.a(attm.o)
                0x0010fa0c                attm_is_bt32_uuid
 .text.attm_svc_create_db
                0x0010fa44      0x100 C:/Users/fg7fww/_Install/App/DemoBoards/RSL10/Packages_RSL10_2.0/ONSemiconductor/RSL10/2.0.0//lib/ble_core/release\libblelib.a(attm.o)
                0x0010fa44                attm_svc_create_db
 .text.attm_att_set_value
                0x0010fb44       0xb8 C:/Users/fg7fww/_Install/App/DemoBoards/RSL10/Packages_RSL10_2.0/ONSemiconductor/RSL10/2.0.0//lib/ble_core/release\libblelib.a(attm.o)
                0x0010fb44                attm_att_set_value
 .text.attm_get_value
                0x0010fbfc      0x15c C:/Users/fg7fww/_Install/App/DemoBoards/RSL10/Packages_RSL10_2.0/ONSemiconductor/RSL10/2.0.0//lib/ble_core/release\libblelib.a(attm.o)
                0x0010fbfc                attm_get_value
 .text.attm_att_set_permission
                0x0010fd58       0x7c C:/Users/fg7fww/_Install/App/DemoBoards/RSL10/Packages_RSL10_2.0/ONSemiconductor/RSL10/2.0.0//lib/ble_core/release\libblelib.a(attm.o)
                0x0010fd58                attm_att_set_permission
 .text.attm_att_update_perm
                0x0010fdd4       0x72 C:/Users/fg7fww/_Install/App/DemoBoards/RSL10/Packages_RSL10_2.0/ONSemiconductor/RSL10/2.0.0//lib/ble_core/release\libblelib.a(attm.o)
                0x0010fdd4                attm_att_update_perm
 .text.attm_svc_set_permission
                0x0010fe46       0x20 C:/Users/fg7fww/_Install/App/DemoBoards/RSL10/Packages_RSL10_2.0/ONSemiconductor/RSL10/2.0.0//lib/ble_core/release\libblelib.a(attm.o)
                0x0010fe46                attm_svc_set_permission
 .text.attm_svc_get_permission
                0x0010fe66       0x1a C:/Users/fg7fww/_Install/App/DemoBoards/RSL10/Packages_RSL10_2.0/ONSemiconductor/RSL10/2.0.0//lib/ble_core/release\libblelib.a(attm.o)
                0x0010fe66                attm_svc_get_permission
 .text.attm_init
                0x0010fe80       0x14 C:/Users/fg7fww/_Install/App/DemoBoards/RSL10/Packages_RSL10_2.0/ONSemiconductor/RSL10/2.0.0//lib/ble_core/release\libblelib.a(attm.o)
                0x0010fe80                attm_init
 .text.attmdb_svc_check_hdl
                0x0010fe94       0x48 C:/Users/fg7fww/_Install/App/DemoBoards/RSL10/Packages_RSL10_2.0/ONSemiconductor/RSL10/2.0.0//lib/ble_core/release\libblelib.a(attm_db.o)
                0x0010fe94                attmdb_svc_check_hdl
 .text.attmdb_add_service
                0x0010fedc      0x418 C:/Users/fg7fww/_Install/App/DemoBoards/RSL10/Packages_RSL10_2.0/ONSemiconductor/RSL10/2.0.0//lib/ble_core/release\libblelib.a(attm_db.o)
                0x0010fedc                attmdb_add_service
 .text.attmdb_destroy
                0x001102f4       0x1c C:/Users/fg7fww/_Install/App/DemoBoards/RSL10/Packages_RSL10_2.0/ONSemiconductor/RSL10/2.0.0//lib/ble_core/release\libblelib.a(attm_db.o)
                0x001102f4                attmdb_destroy
 .text.attmdb_get_service
                0x00110310       0x50 C:/Users/fg7fww/_Install/App/DemoBoards/RSL10/Packages_RSL10_2.0/ONSemiconductor/RSL10/2.0.0//lib/ble_core/release\libblelib.a(attm_db.o)
                0x00110310                attmdb_get_service
 .text.attmdb_get_attribute
                0x00110360       0x36 C:/Users/fg7fww/_Install/App/DemoBoards/RSL10/Packages_RSL10_2.0/ONSemiconductor/RSL10/2.0.0//lib/ble_core/release\libblelib.a(attm_db.o)
                0x00110360                attmdb_get_attribute
 *fill*         0x00110396        0x2 
 .text.attmdb_get_next_att
                0x00110398       0x64 C:/Users/fg7fww/_Install/App/DemoBoards/RSL10/Packages_RSL10_2.0/ONSemiconductor/RSL10/2.0.0//lib/ble_core/release\libblelib.a(attm_db.o)
                0x00110398                attmdb_get_next_att
 .text.attmdb_uuid16_comp
                0x001103fc       0x3a C:/Users/fg7fww/_Install/App/DemoBoards/RSL10/Packages_RSL10_2.0/ONSemiconductor/RSL10/2.0.0//lib/ble_core/release\libblelib.a(attm_db.o)
                0x001103fc                attmdb_uuid16_comp
 .text.attmdb_get_max_len
                0x00110436       0x58 C:/Users/fg7fww/_Install/App/DemoBoards/RSL10/Packages_RSL10_2.0/ONSemiconductor/RSL10/2.0.0//lib/ble_core/release\libblelib.a(attm_db.o)
                0x00110436                attmdb_get_max_len
 .text.attmdb_get_uuid
                0x0011048e       0xbe C:/Users/fg7fww/_Install/App/DemoBoards/RSL10/Packages_RSL10_2.0/ONSemiconductor/RSL10/2.0.0//lib/ble_core/release\libblelib.a(attm_db.o)
                0x0011048e                attmdb_get_uuid
 .text.attmdb_att_get_permission
                0x0011054c      0x106 C:/Users/fg7fww/_Install/App/DemoBoards/RSL10/Packages_RSL10_2.0/ONSemiconductor/RSL10/2.0.0//lib/ble_core/release\libblelib.a(attm_db.o)
                0x0011054c                attmdb_att_get_permission
 *fill*         0x00110652        0x2 
 .text.attc_hdl_val_ntf_ind_handler
                0x00110654       0x74 C:/Users/fg7fww/_Install/App/DemoBoards/RSL10/Packages_RSL10_2.0/ONSemiconductor/RSL10/2.0.0//lib/ble_core/release\libblelib.a(attc.o)
 .text.attc_err_rsp_handler
                0x001106c8        0xe C:/Users/fg7fww/_Install/App/DemoBoards/RSL10/Packages_RSL10_2.0/ONSemiconductor/RSL10/2.0.0//lib/ble_core/release\libblelib.a(attc.o)
 .text.attc_exe_wr_rsp_handler
                0x001106d6       0x3a C:/Users/fg7fww/_Install/App/DemoBoards/RSL10/Packages_RSL10_2.0/ONSemiconductor/RSL10/2.0.0//lib/ble_core/release\libblelib.a(attc.o)
 .text.attc_rd_mult_rsp_handler
                0x00110710       0xc2 C:/Users/fg7fww/_Install/App/DemoBoards/RSL10/Packages_RSL10_2.0/ONSemiconductor/RSL10/2.0.0//lib/ble_core/release\libblelib.a(attc.o)
 .text.attc_prep_wr_rsp_handler
                0x001107d2       0x6a C:/Users/fg7fww/_Install/App/DemoBoards/RSL10/Packages_RSL10_2.0/ONSemiconductor/RSL10/2.0.0//lib/ble_core/release\libblelib.a(attc.o)
 .text.attc_find_by_type_rsp_handler
                0x0011083c       0xb8 C:/Users/fg7fww/_Install/App/DemoBoards/RSL10/Packages_RSL10_2.0/ONSemiconductor/RSL10/2.0.0//lib/ble_core/release\libblelib.a(attc.o)
 .text.attc_find_info_rsp_handler
                0x001108f4       0xc0 C:/Users/fg7fww/_Install/App/DemoBoards/RSL10/Packages_RSL10_2.0/ONSemiconductor/RSL10/2.0.0//lib/ble_core/release\libblelib.a(attc.o)
 .text.attc_rd_by_grp_type_rsp_handler
                0x001109b4      0x10c C:/Users/fg7fww/_Install/App/DemoBoards/RSL10/Packages_RSL10_2.0/ONSemiconductor/RSL10/2.0.0//lib/ble_core/release\libblelib.a(attc.o)
 .text.attc_exc_mtu_rsp_handler
                0x00110ac0       0x3a C:/Users/fg7fww/_Install/App/DemoBoards/RSL10/Packages_RSL10_2.0/ONSemiconductor/RSL10/2.0.0//lib/ble_core/release\libblelib.a(attc.o)
 .text.attc_wr_rsp_handler
                0x00110afa       0x20 C:/Users/fg7fww/_Install/App/DemoBoards/RSL10/Packages_RSL10_2.0/ONSemiconductor/RSL10/2.0.0//lib/ble_core/release\libblelib.a(attc.o)
 .text.attc_send_att_req
                0x00110b1a       0x2e C:/Users/fg7fww/_Install/App/DemoBoards/RSL10/Packages_RSL10_2.0/ONSemiconductor/RSL10/2.0.0//lib/ble_core/release\libblelib.a(attc.o)
                0x00110b1a                attc_send_att_req
 .text.attc_send_hdl_cfm
                0x00110b48       0x24 C:/Users/fg7fww/_Install/App/DemoBoards/RSL10/Packages_RSL10_2.0/ONSemiconductor/RSL10/2.0.0//lib/ble_core/release\libblelib.a(attc.o)
                0x00110b48                attc_send_hdl_cfm
 .text.attc_send_execute
                0x00110b6c       0x28 C:/Users/fg7fww/_Install/App/DemoBoards/RSL10/Packages_RSL10_2.0/ONSemiconductor/RSL10/2.0.0//lib/ble_core/release\libblelib.a(attc.o)
                0x00110b6c                attc_send_execute
 .text.attc_rd_by_type_rsp_handler
                0x00110b94      0x2b4 C:/Users/fg7fww/_Install/App/DemoBoards/RSL10/Packages_RSL10_2.0/ONSemiconductor/RSL10/2.0.0//lib/ble_core/release\libblelib.a(attc.o)
 .text.attc_send_read_ind
                0x00110e48       0xe4 C:/Users/fg7fww/_Install/App/DemoBoards/RSL10/Packages_RSL10_2.0/ONSemiconductor/RSL10/2.0.0//lib/ble_core/release\libblelib.a(attc.o)
                0x00110e48                attc_send_read_ind
 .text.attc_rd_rsp_handler
                0x00110f2c      0x108 C:/Users/fg7fww/_Install/App/DemoBoards/RSL10/Packages_RSL10_2.0/ONSemiconductor/RSL10/2.0.0//lib/ble_core/release\libblelib.a(attc.o)
 .text.attc_l2cc_pdu_recv_handler
                0x00111034       0x50 C:/Users/fg7fww/_Install/App/DemoBoards/RSL10/Packages_RSL10_2.0/ONSemiconductor/RSL10/2.0.0//lib/ble_core/release\libblelib.a(attc.o)
                0x00111034                attc_l2cc_pdu_recv_handler
 .text.gapm_init_attr
                0x00111084       0x38 C:/Users/fg7fww/_Install/App/DemoBoards/RSL10/Packages_RSL10_2.0/ONSemiconductor/RSL10/2.0.0//lib/ble_core/release\libblelib.a(gapm.o)
                0x00111084                gapm_init_attr
 .text.gapm_get_operation
                0x001110bc       0x10 C:/Users/fg7fww/_Install/App/DemoBoards/RSL10/Packages_RSL10_2.0/ONSemiconductor/RSL10/2.0.0//lib/ble_core/release\libblelib.a(gapm.o)
                0x001110bc                gapm_get_operation
 .text.gapm_get_requester
                0x001110cc       0x14 C:/Users/fg7fww/_Install/App/DemoBoards/RSL10/Packages_RSL10_2.0/ONSemiconductor/RSL10/2.0.0//lib/ble_core/release\libblelib.a(gapm.o)
                0x001110cc                gapm_get_requester
 .text.gapm_reschedule_operation
                0x001110e0       0x24 C:/Users/fg7fww/_Install/App/DemoBoards/RSL10/Packages_RSL10_2.0/ONSemiconductor/RSL10/2.0.0//lib/ble_core/release\libblelib.a(gapm.o)
                0x001110e0                gapm_reschedule_operation
 .text.gapm_send_error_evt
                0x00111104       0x22 C:/Users/fg7fww/_Install/App/DemoBoards/RSL10/Packages_RSL10_2.0/ONSemiconductor/RSL10/2.0.0//lib/ble_core/release\libblelib.a(gapm.o)
                0x00111104                gapm_send_error_evt
 *fill*         0x00111126        0x2 
 .text.gapm_con_create
                0x00111128       0x64 C:/Users/fg7fww/_Install/App/DemoBoards/RSL10/Packages_RSL10_2.0/ONSemiconductor/RSL10/2.0.0//lib/ble_core/release\libblelib.a(gapm.o)
                0x00111128                gapm_con_create
 .text.gapm_con_enable
                0x0011118c        0xa C:/Users/fg7fww/_Install/App/DemoBoards/RSL10/Packages_RSL10_2.0/ONSemiconductor/RSL10/2.0.0//lib/ble_core/release\libblelib.a(gapm.o)
                0x0011118c                gapm_con_enable
 *fill*         0x00111196        0x2 
 .text.gapm_con_cleanup
                0x00111198       0x38 C:/Users/fg7fww/_Install/App/DemoBoards/RSL10/Packages_RSL10_2.0/ONSemiconductor/RSL10/2.0.0//lib/ble_core/release\libblelib.a(gapm.o)
                0x00111198                gapm_con_cleanup
 .text.gapm_is_disc_connection
                0x001111d0       0x2c C:/Users/fg7fww/_Install/App/DemoBoards/RSL10/Packages_RSL10_2.0/ONSemiconductor/RSL10/2.0.0//lib/ble_core/release\libblelib.a(gapm.o)
                0x001111d0                gapm_is_disc_connection
 .text.gapm_get_max_mtu
                0x001111fc        0xc C:/Users/fg7fww/_Install/App/DemoBoards/RSL10/Packages_RSL10_2.0/ONSemiconductor/RSL10/2.0.0//lib/ble_core/release\libblelib.a(gapm.o)
                0x001111fc                gapm_get_max_mtu
 .text.gapm_get_max_mps
                0x00111208        0xc C:/Users/fg7fww/_Install/App/DemoBoards/RSL10/Packages_RSL10_2.0/ONSemiconductor/RSL10/2.0.0//lib/ble_core/release\libblelib.a(gapm.o)
                0x00111208                gapm_get_max_mps
 .text.gapm_set_max_mtu
                0x00111214       0x1c C:/Users/fg7fww/_Install/App/DemoBoards/RSL10/Packages_RSL10_2.0/ONSemiconductor/RSL10/2.0.0//lib/ble_core/release\libblelib.a(gapm.o)
                0x00111214                gapm_set_max_mtu
 .text.gapm_set_max_mps
                0x00111230       0x18 C:/Users/fg7fww/_Install/App/DemoBoards/RSL10/Packages_RSL10_2.0/ONSemiconductor/RSL10/2.0.0//lib/ble_core/release\libblelib.a(gapm.o)
                0x00111230                gapm_set_max_mps
 .text.gapm_addr_check
                0x00111248       0x14 C:/Users/fg7fww/_Install/App/DemoBoards/RSL10/Packages_RSL10_2.0/ONSemiconductor/RSL10/2.0.0//lib/ble_core/release\libblelib.a(gapm.o)
                0x00111248                gapm_addr_check
 .text.gapm_dle_val_check
                0x0011125c       0x1a C:/Users/fg7fww/_Install/App/DemoBoards/RSL10/Packages_RSL10_2.0/ONSemiconductor/RSL10/2.0.0//lib/ble_core/release\libblelib.a(gapm.o)
                0x0011125c                gapm_dle_val_check
 *fill*         0x00111276        0x2 
 .text.gapm_get_local_public_key
                0x00111278        0x8 C:/Users/fg7fww/_Install/App/DemoBoards/RSL10/Packages_RSL10_2.0/ONSemiconductor/RSL10/2.0.0//lib/ble_core/release\libblelib.a(gapm.o)
                0x00111278                gapm_get_local_public_key
 .text.gapm_update_state
                0x00111280       0x2e C:/Users/fg7fww/_Install/App/DemoBoards/RSL10/Packages_RSL10_2.0/ONSemiconductor/RSL10/2.0.0//lib/ble_core/release\libblelib.a(gapm.o)
                0x00111280                gapm_update_state
 *fill*         0x001112ae        0x2 
 .text.gapm_operation_cleanup
                0x001112b0       0x58 C:/Users/fg7fww/_Install/App/DemoBoards/RSL10/Packages_RSL10_2.0/ONSemiconductor/RSL10/2.0.0//lib/ble_core/release\libblelib.a(gapm.o)
 .text.gapm_send_complete_evt
                0x00111308       0x38 C:/Users/fg7fww/_Install/App/DemoBoards/RSL10/Packages_RSL10_2.0/ONSemiconductor/RSL10/2.0.0//lib/ble_core/release\libblelib.a(gapm.o)
                0x00111308                gapm_send_complete_evt
 .text.gapm_is_legacy_pairing_supp
                0x00111340       0x10 C:/Users/fg7fww/_Install/App/DemoBoards/RSL10/Packages_RSL10_2.0/ONSemiconductor/RSL10/2.0.0//lib/ble_core/release\libblelib.a(gapm.o)
                0x00111340                gapm_is_legacy_pairing_supp
 .text.gapm_is_sec_con_pairing_supp
                0x00111350       0x10 C:/Users/fg7fww/_Install/App/DemoBoards/RSL10/Packages_RSL10_2.0/ONSemiconductor/RSL10/2.0.0//lib/ble_core/release\libblelib.a(gapm.o)
                0x00111350                gapm_is_sec_con_pairing_supp
 .text.gapm_le_psm_find
                0x00111360       0x18 C:/Users/fg7fww/_Install/App/DemoBoards/RSL10/Packages_RSL10_2.0/ONSemiconductor/RSL10/2.0.0//lib/ble_core/release\libblelib.a(gapm.o)
                0x00111360                gapm_le_psm_find
 .text.gapm_le_psm_get_info
                0x00111378       0x30 C:/Users/fg7fww/_Install/App/DemoBoards/RSL10/Packages_RSL10_2.0/ONSemiconductor/RSL10/2.0.0//lib/ble_core/release\libblelib.a(gapm.o)
                0x00111378                gapm_le_psm_get_info
 .text.gapm_lecb_register
                0x001113a8       0x34 C:/Users/fg7fww/_Install/App/DemoBoards/RSL10/Packages_RSL10_2.0/ONSemiconductor/RSL10/2.0.0//lib/ble_core/release\libblelib.a(gapm.o)
                0x001113a8                gapm_lecb_register
 .text.gapm_lecb_unregister
                0x001113dc       0x24 C:/Users/fg7fww/_Install/App/DemoBoards/RSL10/Packages_RSL10_2.0/ONSemiconductor/RSL10/2.0.0//lib/ble_core/release\libblelib.a(gapm.o)
                0x001113dc                gapm_lecb_unregister
 .text.gapm_le_psm_cleanup
                0x00111400       0x20 C:/Users/fg7fww/_Install/App/DemoBoards/RSL10/Packages_RSL10_2.0/ONSemiconductor/RSL10/2.0.0//lib/ble_core/release\libblelib.a(gapm.o)
                0x00111400                gapm_le_psm_cleanup
 .text.gapm_init
                0x00111420       0x70 C:/Users/fg7fww/_Install/App/DemoBoards/RSL10/Packages_RSL10_2.0/ONSemiconductor/RSL10/2.0.0//lib/ble_core/release\libblelib.a(gapm.o)
                0x00111420                gapm_init
 .text.gapm_get_address_type
                0x00111490       0x10 C:/Users/fg7fww/_Install/App/DemoBoards/RSL10/Packages_RSL10_2.0/ONSemiconductor/RSL10/2.0.0//lib/ble_core/release\libblelib.a(gapm.o)
                0x00111490                gapm_get_address_type
 .text.gapm_is_pref_con_param_pres
                0x001114a0       0x10 C:/Users/fg7fww/_Install/App/DemoBoards/RSL10/Packages_RSL10_2.0/ONSemiconductor/RSL10/2.0.0//lib/ble_core/release\libblelib.a(gapm.o)
                0x001114a0                gapm_is_pref_con_param_pres
 .text.gapm_get_att_handle
                0x001114b0       0x24 C:/Users/fg7fww/_Install/App/DemoBoards/RSL10/Packages_RSL10_2.0/ONSemiconductor/RSL10/2.0.0//lib/ble_core/release\libblelib.a(gapm.o)
                0x001114b0                gapm_get_att_handle
 .text.gapm_svc_chg_en
                0x001114d4       0x10 C:/Users/fg7fww/_Install/App/DemoBoards/RSL10/Packages_RSL10_2.0/ONSemiconductor/RSL10/2.0.0//lib/ble_core/release\libblelib.a(gapm.o)
                0x001114d4                gapm_svc_chg_en
 .text.gapm_default_msg_handler
                0x001114e4        0x4 C:/Users/fg7fww/_Install/App/DemoBoards/RSL10/Packages_RSL10_2.0/ONSemiconductor/RSL10/2.0.0//lib/ble_core/release\libblelib.a(gapm_task.o)
 .text.gapm_process_op
                0x001114e8       0x68 C:/Users/fg7fww/_Install/App/DemoBoards/RSL10/Packages_RSL10_2.0/ONSemiconductor/RSL10/2.0.0//lib/ble_core/release\libblelib.a(gapm_task.o)
 .text.gapm_unknown_task_msg_handler
                0x00111550       0x22 C:/Users/fg7fww/_Install/App/DemoBoards/RSL10/Packages_RSL10_2.0/ONSemiconductor/RSL10/2.0.0//lib/ble_core/release\libblelib.a(gapm_task.o)
 .text.gapm_cancel_cmd_handler
                0x00111572       0x3e C:/Users/fg7fww/_Install/App/DemoBoards/RSL10/Packages_RSL10_2.0/ONSemiconductor/RSL10/2.0.0//lib/ble_core/release\libblelib.a(gapm_task.o)
 .text.gapm_connection_cfm_handler
                0x001115b0       0x98 C:/Users/fg7fww/_Install/App/DemoBoards/RSL10/Packages_RSL10_2.0/ONSemiconductor/RSL10/2.0.0//lib/ble_core/release\libblelib.a(gapm_task.o)
 .text.gapm_start_connection_cmd_handler
                0x00111648       0x50 C:/Users/fg7fww/_Install/App/DemoBoards/RSL10/Packages_RSL10_2.0/ONSemiconductor/RSL10/2.0.0//lib/ble_core/release\libblelib.a(gapm_task.o)
 .text.gapm_start_scan_cmd_handler
                0x00111698       0x50 C:/Users/fg7fww/_Install/App/DemoBoards/RSL10/Packages_RSL10_2.0/ONSemiconductor/RSL10/2.0.0//lib/ble_core/release\libblelib.a(gapm_task.o)
 .text.gapm_start_advertise_cmd_handler
                0x001116e8       0x50 C:/Users/fg7fww/_Install/App/DemoBoards/RSL10/Packages_RSL10_2.0/ONSemiconductor/RSL10/2.0.0//lib/ble_core/release\libblelib.a(gapm_task.o)
 .text.gapm_gen_dh_key_cmd_handler
                0x00111738       0x2e C:/Users/fg7fww/_Install/App/DemoBoards/RSL10/Packages_RSL10_2.0/ONSemiconductor/RSL10/2.0.0//lib/ble_core/release\libblelib.a(gapm_task.o)
 *fill*         0x00111766        0x2 
 .text.gapm_resolv_addr_cmd_handler
                0x00111768       0x5c C:/Users/fg7fww/_Install/App/DemoBoards/RSL10/Packages_RSL10_2.0/ONSemiconductor/RSL10/2.0.0//lib/ble_core/release\libblelib.a(gapm_task.o)
 .text.gapm_lepsm_unregister_cmd_handler
                0x001117c4       0x54 C:/Users/fg7fww/_Install/App/DemoBoards/RSL10/Packages_RSL10_2.0/ONSemiconductor/RSL10/2.0.0//lib/ble_core/release\libblelib.a(gapm_task.o)
 .text.gapm_lepsm_register_cmd_handler
                0x00111818       0x60 C:/Users/fg7fww/_Install/App/DemoBoards/RSL10/Packages_RSL10_2.0/ONSemiconductor/RSL10/2.0.0//lib/ble_core/release\libblelib.a(gapm_task.o)
 .text.gapm_set_irk_cmd_handler
                0x00111878       0x64 C:/Users/fg7fww/_Install/App/DemoBoards/RSL10/Packages_RSL10_2.0/ONSemiconductor/RSL10/2.0.0//lib/ble_core/release\libblelib.a(gapm_task.o)
 .text.gapm_ral_mgt_cmd_handler
                0x001118dc      0x114 C:/Users/fg7fww/_Install/App/DemoBoards/RSL10/Packages_RSL10_2.0/ONSemiconductor/RSL10/2.0.0//lib/ble_core/release\libblelib.a(gapm_task.o)
 .text.gapm_white_list_mgt_cmd_handler
                0x001119f0       0x9c C:/Users/fg7fww/_Install/App/DemoBoards/RSL10/Packages_RSL10_2.0/ONSemiconductor/RSL10/2.0.0//lib/ble_core/release\libblelib.a(gapm_task.o)
 .text.gapm_get_dev_info_cmd_handler
                0x00111a8c       0xb4 C:/Users/fg7fww/_Install/App/DemoBoards/RSL10/Packages_RSL10_2.0/ONSemiconductor/RSL10/2.0.0//lib/ble_core/release\libblelib.a(gapm_task.o)
 .text.gapm_profile_task_add_cmd_handler
                0x00111b40       0x60 C:/Users/fg7fww/_Install/App/DemoBoards/RSL10/Packages_RSL10_2.0/ONSemiconductor/RSL10/2.0.0//lib/ble_core/release\libblelib.a(gapm_task.o)
 .text.gapm_addr_renew_to_ind_handler
                0x00111ba0       0x34 C:/Users/fg7fww/_Install/App/DemoBoards/RSL10/Packages_RSL10_2.0/ONSemiconductor/RSL10/2.0.0//lib/ble_core/release\libblelib.a(gapm_task.o)
 .text.gapm_cmp_evt_handler
                0x00111bd4       0x50 C:/Users/fg7fww/_Install/App/DemoBoards/RSL10/Packages_RSL10_2.0/ONSemiconductor/RSL10/2.0.0//lib/ble_core/release\libblelib.a(gapm_task.o)
 .text.gapc_cmp_evt_handler
                0x00111c24       0x42 C:/Users/fg7fww/_Install/App/DemoBoards/RSL10/Packages_RSL10_2.0/ONSemiconductor/RSL10/2.0.0//lib/ble_core/release\libblelib.a(gapm_task.o)
 .text.gapm_lim_disc_to_ind_handler
                0x00111c66       0x1a C:/Users/fg7fww/_Install/App/DemoBoards/RSL10/Packages_RSL10_2.0/ONSemiconductor/RSL10/2.0.0//lib/ble_core/release\libblelib.a(gapm_task.o)
 .text.gapc_peer_att_info_ind_handler
                0x00111c80       0x6c C:/Users/fg7fww/_Install/App/DemoBoards/RSL10/Packages_RSL10_2.0/ONSemiconductor/RSL10/2.0.0//lib/ble_core/release\libblelib.a(gapm_task.o)
 .text.gapm_update_advertise_data_cmd_handler
                0x00111cec       0x4c C:/Users/fg7fww/_Install/App/DemoBoards/RSL10/Packages_RSL10_2.0/ONSemiconductor/RSL10/2.0.0//lib/ble_core/release\libblelib.a(gapm_task.o)
 .text.gapm_use_enc_block_cmd_handler
                0x00111d38       0x50 C:/Users/fg7fww/_Install/App/DemoBoards/RSL10/Packages_RSL10_2.0/ONSemiconductor/RSL10/2.0.0//lib/ble_core/release\libblelib.a(gapm_task.o)
 .text.gapm_gen_rand_addr_cmd_handler
                0x00111d88       0x34 C:/Users/fg7fww/_Install/App/DemoBoards/RSL10/Packages_RSL10_2.0/ONSemiconductor/RSL10/2.0.0//lib/ble_core/release\libblelib.a(gapm_task.o)
 .text.gapm_set_channel_map_cmd_handler
                0x00111dbc       0x5a C:/Users/fg7fww/_Install/App/DemoBoards/RSL10/Packages_RSL10_2.0/ONSemiconductor/RSL10/2.0.0//lib/ble_core/release\libblelib.a(gapm_task.o)
 *fill*         0x00111e16        0x2 
 .text.gapm_set_dev_config_cmd_handler
                0x00111e18      0x200 C:/Users/fg7fww/_Install/App/DemoBoards/RSL10/Packages_RSL10_2.0/ONSemiconductor/RSL10/2.0.0//lib/ble_core/release\libblelib.a(gapm_task.o)
 .text.gapm_reset_cmd_handler
                0x00112018       0x40 C:/Users/fg7fww/_Install/App/DemoBoards/RSL10/Packages_RSL10_2.0/ONSemiconductor/RSL10/2.0.0//lib/ble_core/release\libblelib.a(gapm_task.o)
 .text.gapm_scan_to_ind_handler
                0x00112058       0x1a C:/Users/fg7fww/_Install/App/DemoBoards/RSL10/Packages_RSL10_2.0/ONSemiconductor/RSL10/2.0.0//lib/ble_core/release\libblelib.a(gapm_task.o)
 *fill*         0x00112072        0x2 
 .text.gapm_set_address_op
                0x00112074       0x88 C:/Users/fg7fww/_Install/App/DemoBoards/RSL10/Packages_RSL10_2.0/ONSemiconductor/RSL10/2.0.0//lib/ble_core/release\libblelib.a(gapm_util.o)
 .text.gapm_update_address_op_state
                0x001120fc       0x80 C:/Users/fg7fww/_Install/App/DemoBoards/RSL10/Packages_RSL10_2.0/ONSemiconductor/RSL10/2.0.0//lib/ble_core/release\libblelib.a(gapm_util.o)
 .text.gapm_adv_op_sanity
                0x0011217c      0x150 C:/Users/fg7fww/_Install/App/DemoBoards/RSL10/Packages_RSL10_2.0/ONSemiconductor/RSL10/2.0.0//lib/ble_core/release\libblelib.a(gapm_util.o)
                0x0011217c                gapm_adv_op_sanity
 .text.gapm_set_adv_data
                0x001122cc       0x60 C:/Users/fg7fww/_Install/App/DemoBoards/RSL10/Packages_RSL10_2.0/ONSemiconductor/RSL10/2.0.0//lib/ble_core/release\libblelib.a(gapm_util.o)
                0x001122cc                gapm_set_adv_data
 .text.gapm_scan_op_sanity
                0x0011232c       0x60 C:/Users/fg7fww/_Install/App/DemoBoards/RSL10/Packages_RSL10_2.0/ONSemiconductor/RSL10/2.0.0//lib/ble_core/release\libblelib.a(gapm_util.o)
                0x0011232c                gapm_scan_op_sanity
 .text.gapm_connect_op_sanity
                0x0011238c       0xa0 C:/Users/fg7fww/_Install/App/DemoBoards/RSL10/Packages_RSL10_2.0/ONSemiconductor/RSL10/2.0.0//lib/ble_core/release\libblelib.a(gapm_util.o)
                0x0011238c                gapm_connect_op_sanity
 .text.gapm_get_role
                0x0011242c        0xc C:/Users/fg7fww/_Install/App/DemoBoards/RSL10/Packages_RSL10_2.0/ONSemiconductor/RSL10/2.0.0//lib/ble_core/release\libblelib.a(gapm_util.o)
                0x0011242c                gapm_get_role
 .text.gapm_set_adv_mode
                0x00112438       0x1e C:/Users/fg7fww/_Install/App/DemoBoards/RSL10/Packages_RSL10_2.0/ONSemiconductor/RSL10/2.0.0//lib/ble_core/release\libblelib.a(gapm_util.o)
                0x00112438                gapm_set_adv_mode
 .text.gapm_set_scan_mode
                0x00112456       0x22 C:/Users/fg7fww/_Install/App/DemoBoards/RSL10/Packages_RSL10_2.0/ONSemiconductor/RSL10/2.0.0//lib/ble_core/release\libblelib.a(gapm_util.o)
                0x00112456                gapm_set_scan_mode
 .text.gapm_get_ad_type_flag
                0x00112478       0x22 C:/Users/fg7fww/_Install/App/DemoBoards/RSL10/Packages_RSL10_2.0/ONSemiconductor/RSL10/2.0.0//lib/ble_core/release\libblelib.a(gapm_util.o)
                0x00112478                gapm_get_ad_type_flag
 *fill*         0x0011249a        0x2 
 .text.gapm_add_to_filter
                0x0011249c       0x74 C:/Users/fg7fww/_Install/App/DemoBoards/RSL10/Packages_RSL10_2.0/ONSemiconductor/RSL10/2.0.0//lib/ble_core/release\libblelib.a(gapm_util.o)
                0x0011249c                gapm_add_to_filter
 .text.gapm_is_filtered
                0x00112510       0x44 C:/Users/fg7fww/_Install/App/DemoBoards/RSL10/Packages_RSL10_2.0/ONSemiconductor/RSL10/2.0.0//lib/ble_core/release\libblelib.a(gapm_util.o)
                0x00112510                gapm_is_filtered
 .text.gapm_update_air_op_state
                0x00112554      0x318 C:/Users/fg7fww/_Install/App/DemoBoards/RSL10/Packages_RSL10_2.0/ONSemiconductor/RSL10/2.0.0//lib/ble_core/release\libblelib.a(gapm_util.o)
                0x00112554                gapm_update_air_op_state
 .text.gapm_get_irk
                0x0011286c        0x8 C:/Users/fg7fww/_Install/App/DemoBoards/RSL10/Packages_RSL10_2.0/ONSemiconductor/RSL10/2.0.0//lib/ble_core/release\libblelib.a(gapm_util.o)
                0x0011286c                gapm_get_irk
 .text.gapm_get_bdaddr
                0x00112874        0x8 C:/Users/fg7fww/_Install/App/DemoBoards/RSL10/Packages_RSL10_2.0/ONSemiconductor/RSL10/2.0.0//lib/ble_core/release\libblelib.a(gapm_util.o)
                0x00112874                gapm_get_bdaddr
 .text.gapm_basic_hci_cmd_send
                0x0011287c       0x18 C:/Users/fg7fww/_Install/App/DemoBoards/RSL10/Packages_RSL10_2.0/ONSemiconductor/RSL10/2.0.0//lib/ble_core/release\libblelib.a(gapm_util.o)
                0x0011287c                gapm_basic_hci_cmd_send
 .text.gapm_setup_conn
                0x00112894       0x64 C:/Users/fg7fww/_Install/App/DemoBoards/RSL10/Packages_RSL10_2.0/ONSemiconductor/RSL10/2.0.0//lib/ble_core/release\libblelib.a(gapm_util.o)
                0x00112894                gapm_setup_conn
 .text.gapm_get_adv_mode
                0x001128f8       0x1c C:/Users/fg7fww/_Install/App/DemoBoards/RSL10/Packages_RSL10_2.0/ONSemiconductor/RSL10/2.0.0//lib/ble_core/release\libblelib.a(gapm_util.o)
                0x001128f8                gapm_get_adv_mode
 .text.gapm_get_local_addrtype
                0x00112914       0x24 C:/Users/fg7fww/_Install/App/DemoBoards/RSL10/Packages_RSL10_2.0/ONSemiconductor/RSL10/2.0.0//lib/ble_core/release\libblelib.a(gapm_util.o)
                0x00112914                gapm_get_local_addrtype
 .text.gapm_execute_adv_op
                0x00112938      0x178 C:/Users/fg7fww/_Install/App/DemoBoards/RSL10/Packages_RSL10_2.0/ONSemiconductor/RSL10/2.0.0//lib/ble_core/release\libblelib.a(gapm_util.o)
                0x00112938                gapm_execute_adv_op
 .text.gapm_execute_scan_op
                0x00112ab0       0xac C:/Users/fg7fww/_Install/App/DemoBoards/RSL10/Packages_RSL10_2.0/ONSemiconductor/RSL10/2.0.0//lib/ble_core/release\libblelib.a(gapm_util.o)
                0x00112ab0                gapm_execute_scan_op
 .text.gapm_execute_connect_op
                0x00112b5c      0x1ac C:/Users/fg7fww/_Install/App/DemoBoards/RSL10/Packages_RSL10_2.0/ONSemiconductor/RSL10/2.0.0//lib/ble_core/release\libblelib.a(gapm_util.o)
                0x00112b5c                gapm_execute_connect_op
 .text.gapm_op_reset_continue
                0x00112d08       0xb2 C:/Users/fg7fww/_Install/App/DemoBoards/RSL10/Packages_RSL10_2.0/ONSemiconductor/RSL10/2.0.0//lib/ble_core/release\libblelib.a(gapm_util.o)
                0x00112d08                gapm_op_reset_continue
 *fill*         0x00112dba        0x2 
 .text.gapm_op_setup_continue
                0x00112dbc      0x164 C:/Users/fg7fww/_Install/App/DemoBoards/RSL10/Packages_RSL10_2.0/ONSemiconductor/RSL10/2.0.0//lib/ble_core/release\libblelib.a(gapm_util.o)
                0x00112dbc                gapm_op_setup_continue
 .text.gapc_operation_cleanup
                0x00112f20       0x74 C:/Users/fg7fww/_Install/App/DemoBoards/RSL10/Packages_RSL10_2.0/ONSemiconductor/RSL10/2.0.0//lib/ble_core/release\libblelib.a(gapc.o)
 .text.gapc_con_create
                0x00112f94      0x13c C:/Users/fg7fww/_Install/App/DemoBoards/RSL10/Packages_RSL10_2.0/ONSemiconductor/RSL10/2.0.0//lib/ble_core/release\libblelib.a(gapc.o)
                0x00112f94                gapc_con_create
 .text.gapc_send_disconect_ind
                0x001130d0       0x24 C:/Users/fg7fww/_Install/App/DemoBoards/RSL10/Packages_RSL10_2.0/ONSemiconductor/RSL10/2.0.0//lib/ble_core/release\libblelib.a(gapc.o)
                0x001130d0                gapc_send_disconect_ind
 .text.gapc_get_conidx
                0x001130f4       0x28 C:/Users/fg7fww/_Install/App/DemoBoards/RSL10/Packages_RSL10_2.0/ONSemiconductor/RSL10/2.0.0//lib/ble_core/release\libblelib.a(gapc.o)
                0x001130f4                gapc_get_conidx
 .text.gapc_get_conhdl
                0x0011311c       0x1c C:/Users/fg7fww/_Install/App/DemoBoards/RSL10/Packages_RSL10_2.0/ONSemiconductor/RSL10/2.0.0//lib/ble_core/release\libblelib.a(gapc.o)
                0x0011311c                gapc_get_conhdl
 .text.gapc_get_role
                0x00113138       0x20 C:/Users/fg7fww/_Install/App/DemoBoards/RSL10/Packages_RSL10_2.0/ONSemiconductor/RSL10/2.0.0//lib/ble_core/release\libblelib.a(gapc.o)
                0x00113138                gapc_get_role
 .text.gapc_get_bdaddr
                0x00113158       0x24 C:/Users/fg7fww/_Install/App/DemoBoards/RSL10/Packages_RSL10_2.0/ONSemiconductor/RSL10/2.0.0//lib/ble_core/release\libblelib.a(gapc.o)
                0x00113158                gapc_get_bdaddr
 .text.gapc_get_csrk
                0x0011317c       0x20 C:/Users/fg7fww/_Install/App/DemoBoards/RSL10/Packages_RSL10_2.0/ONSemiconductor/RSL10/2.0.0//lib/ble_core/release\libblelib.a(gapc.o)
                0x0011317c                gapc_get_csrk
 .text.gapc_get_sign_counter
                0x0011319c       0x20 C:/Users/fg7fww/_Install/App/DemoBoards/RSL10/Packages_RSL10_2.0/ONSemiconductor/RSL10/2.0.0//lib/ble_core/release\libblelib.a(gapc.o)
                0x0011319c                gapc_get_sign_counter
 .text.gapc_send_error_evt
                0x001131bc       0x24 C:/Users/fg7fww/_Install/App/DemoBoards/RSL10/Packages_RSL10_2.0/ONSemiconductor/RSL10/2.0.0//lib/ble_core/release\libblelib.a(gapc.o)
                0x001131bc                gapc_send_error_evt
 .text.gapc_get_operation
                0x001131e0       0x14 C:/Users/fg7fww/_Install/App/DemoBoards/RSL10/Packages_RSL10_2.0/ONSemiconductor/RSL10/2.0.0//lib/ble_core/release\libblelib.a(gapc.o)
                0x001131e0                gapc_get_operation
 .text.gapc_get_operation_ptr
                0x001131f4       0x10 C:/Users/fg7fww/_Install/App/DemoBoards/RSL10/Packages_RSL10_2.0/ONSemiconductor/RSL10/2.0.0//lib/ble_core/release\libblelib.a(gapc.o)
                0x001131f4                gapc_get_operation_ptr
 .text.gapc_set_operation_ptr
                0x00113204       0x10 C:/Users/fg7fww/_Install/App/DemoBoards/RSL10/Packages_RSL10_2.0/ONSemiconductor/RSL10/2.0.0//lib/ble_core/release\libblelib.a(gapc.o)
                0x00113204                gapc_set_operation_ptr
 .text.gapc_reschedule_operation
                0x00113214       0x30 C:/Users/fg7fww/_Install/App/DemoBoards/RSL10/Packages_RSL10_2.0/ONSemiconductor/RSL10/2.0.0//lib/ble_core/release\libblelib.a(gapc.o)
                0x00113214                gapc_reschedule_operation
 .text.gapc_get_requester
                0x00113244       0x18 C:/Users/fg7fww/_Install/App/DemoBoards/RSL10/Packages_RSL10_2.0/ONSemiconductor/RSL10/2.0.0//lib/ble_core/release\libblelib.a(gapc.o)
                0x00113244                gapc_get_requester
 .text.gapc_is_sec_set
                0x0011325c       0x44 C:/Users/fg7fww/_Install/App/DemoBoards/RSL10/Packages_RSL10_2.0/ONSemiconductor/RSL10/2.0.0//lib/ble_core/release\libblelib.a(gapc.o)
                0x0011325c                gapc_is_sec_set
 .text.gapc_lk_sec_lvl_get
                0x001132a0       0x20 C:/Users/fg7fww/_Install/App/DemoBoards/RSL10/Packages_RSL10_2.0/ONSemiconductor/RSL10/2.0.0//lib/ble_core/release\libblelib.a(gapc.o)
                0x001132a0                gapc_lk_sec_lvl_get
 .text.gapc_enc_keysize_get
                0x001132c0       0x1c C:/Users/fg7fww/_Install/App/DemoBoards/RSL10/Packages_RSL10_2.0/ONSemiconductor/RSL10/2.0.0//lib/ble_core/release\libblelib.a(gapc.o)
                0x001132c0                gapc_enc_keysize_get
 .text.gapc_enc_keysize_set
                0x001132dc       0x18 C:/Users/fg7fww/_Install/App/DemoBoards/RSL10/Packages_RSL10_2.0/ONSemiconductor/RSL10/2.0.0//lib/ble_core/release\libblelib.a(gapc.o)
                0x001132dc                gapc_enc_keysize_set
 .text.gapc_link_encrypted
                0x001132f4       0x20 C:/Users/fg7fww/_Install/App/DemoBoards/RSL10/Packages_RSL10_2.0/ONSemiconductor/RSL10/2.0.0//lib/ble_core/release\libblelib.a(gapc.o)
                0x001132f4                gapc_link_encrypted
 .text.gapc_auth_set
                0x00113314       0x58 C:/Users/fg7fww/_Install/App/DemoBoards/RSL10/Packages_RSL10_2.0/ONSemiconductor/RSL10/2.0.0//lib/ble_core/release\libblelib.a(gapc.o)
                0x00113314                gapc_auth_set
 .text.gapc_auth_get
                0x0011336c       0x38 C:/Users/fg7fww/_Install/App/DemoBoards/RSL10/Packages_RSL10_2.0/ONSemiconductor/RSL10/2.0.0//lib/ble_core/release\libblelib.a(gapc.o)
                0x0011336c                gapc_auth_get
 .text.gapc_svc_chg_ccc_get
                0x001133a4       0x14 C:/Users/fg7fww/_Install/App/DemoBoards/RSL10/Packages_RSL10_2.0/ONSemiconductor/RSL10/2.0.0//lib/ble_core/release\libblelib.a(gapc.o)
                0x001133a4                gapc_svc_chg_ccc_get
 .text.gapc_svc_chg_ccc_set
                0x001133b8       0x20 C:/Users/fg7fww/_Install/App/DemoBoards/RSL10/Packages_RSL10_2.0/ONSemiconductor/RSL10/2.0.0//lib/ble_core/release\libblelib.a(gapc.o)
                0x001133b8                gapc_svc_chg_ccc_set
 .text.gapc_update_state
                0x001133d8       0x3c C:/Users/fg7fww/_Install/App/DemoBoards/RSL10/Packages_RSL10_2.0/ONSemiconductor/RSL10/2.0.0//lib/ble_core/release\libblelib.a(gapc.o)
                0x001133d8                gapc_update_state
 .text.gapc_send_complete_evt
                0x00113414       0x5c C:/Users/fg7fww/_Install/App/DemoBoards/RSL10/Packages_RSL10_2.0/ONSemiconductor/RSL10/2.0.0//lib/ble_core/release\libblelib.a(gapc.o)
                0x00113414                gapc_send_complete_evt
 .text.gapc_cleanup
                0x00113470       0x7c C:/Users/fg7fww/_Install/App/DemoBoards/RSL10/Packages_RSL10_2.0/ONSemiconductor/RSL10/2.0.0//lib/ble_core/release\libblelib.a(gapc.o)
 .text.gapc_init
                0x001134ec       0x3c C:/Users/fg7fww/_Install/App/DemoBoards/RSL10/Packages_RSL10_2.0/ONSemiconductor/RSL10/2.0.0//lib/ble_core/release\libblelib.a(gapc.o)
                0x001134ec                gapc_init
 .text.gapc_con_cleanup
                0x00113528       0x10 C:/Users/fg7fww/_Install/App/DemoBoards/RSL10/Packages_RSL10_2.0/ONSemiconductor/RSL10/2.0.0//lib/ble_core/release\libblelib.a(gapc.o)
                0x00113528                gapc_con_cleanup
 .text.gapc_param_update_sanity
                0x00113538       0x32 C:/Users/fg7fww/_Install/App/DemoBoards/RSL10/Packages_RSL10_2.0/ONSemiconductor/RSL10/2.0.0//lib/ble_core/release\libblelib.a(gapc.o)
                0x00113538                gapc_param_update_sanity
 .text.gapc_default_msg_handler
                0x0011356a        0x4 C:/Users/fg7fww/_Install/App/DemoBoards/RSL10/Packages_RSL10_2.0/ONSemiconductor/RSL10/2.0.0//lib/ble_core/release\libblelib.a(gapc_task.o)
 *fill*         0x0011356e        0x2 
 .text.gapc_smp_rep_attempts_timer_handler
                0x00113570       0x30 C:/Users/fg7fww/_Install/App/DemoBoards/RSL10/Packages_RSL10_2.0/ONSemiconductor/RSL10/2.0.0//lib/ble_core/release\libblelib.a(gapc_task.o)
 .text.gapc_set_dev_info_cfm_handler
                0x001135a0       0x4c C:/Users/fg7fww/_Install/App/DemoBoards/RSL10/Packages_RSL10_2.0/ONSemiconductor/RSL10/2.0.0//lib/ble_core/release\libblelib.a(gapc_task.o)
 .text.gapc_get_dev_info_cfm_handler
                0x001135ec       0xce C:/Users/fg7fww/_Install/App/DemoBoards/RSL10/Packages_RSL10_2.0/ONSemiconductor/RSL10/2.0.0//lib/ble_core/release\libblelib.a(gapc_task.o)
 .text.gapc_gen_dh_key_ind_handler
                0x001136ba       0x1c C:/Users/fg7fww/_Install/App/DemoBoards/RSL10/Packages_RSL10_2.0/ONSemiconductor/RSL10/2.0.0//lib/ble_core/release\libblelib.a(gapc_task.o)
 *fill*         0x001136d6        0x2 
 .text.gapc_smp_timeout_timer_ind_handler
                0x001136d8       0x44 C:/Users/fg7fww/_Install/App/DemoBoards/RSL10/Packages_RSL10_2.0/ONSemiconductor/RSL10/2.0.0//lib/ble_core/release\libblelib.a(gapc_task.o)
 .text.l2cc_cmp_evt_handler
                0x0011371c       0x3c C:/Users/fg7fww/_Install/App/DemoBoards/RSL10/Packages_RSL10_2.0/ONSemiconductor/RSL10/2.0.0//lib/ble_core/release\libblelib.a(gapc_task.o)
 .text.gapc_update_conn_param_to_ind_handler
                0x00113758       0x44 C:/Users/fg7fww/_Install/App/DemoBoards/RSL10/Packages_RSL10_2.0/ONSemiconductor/RSL10/2.0.0//lib/ble_core/release\libblelib.a(gapc_task.o)
 .text.gapm_use_enc_block_ind_handler
                0x0011379c       0x3e C:/Users/fg7fww/_Install/App/DemoBoards/RSL10/Packages_RSL10_2.0/ONSemiconductor/RSL10/2.0.0//lib/ble_core/release\libblelib.a(gapc_task.o)
 .text.gapm_gen_rand_nb_ind_handler
                0x001137da       0x2a C:/Users/fg7fww/_Install/App/DemoBoards/RSL10/Packages_RSL10_2.0/ONSemiconductor/RSL10/2.0.0//lib/ble_core/release\libblelib.a(gapc_task.o)
 .text.gapc_encrypt_cfm_handler
                0x00113804       0x34 C:/Users/fg7fww/_Install/App/DemoBoards/RSL10/Packages_RSL10_2.0/ONSemiconductor/RSL10/2.0.0//lib/ble_core/release\libblelib.a(gapc_task.o)
 .text.gapc_bond_cfm_handler
                0x00113838       0xdc C:/Users/fg7fww/_Install/App/DemoBoards/RSL10/Packages_RSL10_2.0/ONSemiconductor/RSL10/2.0.0//lib/ble_core/release\libblelib.a(gapc_task.o)
 .text.l2cc_pdu_recv_ind_handler
                0x00113914       0x66 C:/Users/fg7fww/_Install/App/DemoBoards/RSL10/Packages_RSL10_2.0/ONSemiconductor/RSL10/2.0.0//lib/ble_core/release\libblelib.a(gapc_task.o)
 *fill*         0x0011397a        0x2 
 .text.gapc_param_update_cfm_handler
                0x0011397c      0x100 C:/Users/fg7fww/_Install/App/DemoBoards/RSL10/Packages_RSL10_2.0/ONSemiconductor/RSL10/2.0.0//lib/ble_core/release\libblelib.a(gapc_task.o)
 .text.gattc_read_ind_handler
                0x00113a7c      0x110 C:/Users/fg7fww/_Install/App/DemoBoards/RSL10/Packages_RSL10_2.0/ONSemiconductor/RSL10/2.0.0//lib/ble_core/release\libblelib.a(gapc_task.o)
 .text.gattc_cmp_evt_handler
                0x00113b8c       0x6c C:/Users/fg7fww/_Install/App/DemoBoards/RSL10/Packages_RSL10_2.0/ONSemiconductor/RSL10/2.0.0//lib/ble_core/release\libblelib.a(gapc_task.o)
 .text.gapc_connection_cfm_handler
                0x00113bf8       0x90 C:/Users/fg7fww/_Install/App/DemoBoards/RSL10/Packages_RSL10_2.0/ONSemiconductor/RSL10/2.0.0//lib/ble_core/release\libblelib.a(gapc_task.o)
 .text.gapc_disconnect_cmd_handler
                0x00113c88       0x7c C:/Users/fg7fww/_Install/App/DemoBoards/RSL10/Packages_RSL10_2.0/ONSemiconductor/RSL10/2.0.0//lib/ble_core/release\libblelib.a(gapc_task.o)
 .text.gattc_att_info_req_ind_handler
                0x00113d04       0x6c C:/Users/fg7fww/_Install/App/DemoBoards/RSL10/Packages_RSL10_2.0/ONSemiconductor/RSL10/2.0.0//lib/ble_core/release\libblelib.a(gapc_task.o)
 .text.gattc_write_req_ind_handler
                0x00113d70       0xd4 C:/Users/fg7fww/_Install/App/DemoBoards/RSL10/Packages_RSL10_2.0/ONSemiconductor/RSL10/2.0.0//lib/ble_core/release\libblelib.a(gapc_task.o)
 .text.gattc_read_req_ind_handler
                0x00113e44       0xb6 C:/Users/fg7fww/_Install/App/DemoBoards/RSL10/Packages_RSL10_2.0/ONSemiconductor/RSL10/2.0.0//lib/ble_core/release\libblelib.a(gapc_task.o)
 .text.gapm_cmp_evt_handler
                0x00113efa       0x4e C:/Users/fg7fww/_Install/App/DemoBoards/RSL10/Packages_RSL10_2.0/ONSemiconductor/RSL10/2.0.0//lib/ble_core/release\libblelib.a(gapc_task.o)
 .text.gapc_process_op
                0x00113f48       0x8a C:/Users/fg7fww/_Install/App/DemoBoards/RSL10/Packages_RSL10_2.0/ONSemiconductor/RSL10/2.0.0//lib/ble_core/release\libblelib.a(gapc_task.o)
                0x00113f48                gapc_process_op
 .text.gapc_set_phy_cmd_handler
                0x00113fd2       0x66 C:/Users/fg7fww/_Install/App/DemoBoards/RSL10/Packages_RSL10_2.0/ONSemiconductor/RSL10/2.0.0//lib/ble_core/release\libblelib.a(gapc_task.o)
 .text.gapc_set_le_pkt_size_handler
                0x00114038       0x52 C:/Users/fg7fww/_Install/App/DemoBoards/RSL10/Packages_RSL10_2.0/ONSemiconductor/RSL10/2.0.0//lib/ble_core/release\libblelib.a(gapc_task.o)
 .text.gapc_set_le_ping_to_handler
                0x0011408a       0x4e C:/Users/fg7fww/_Install/App/DemoBoards/RSL10/Packages_RSL10_2.0/ONSemiconductor/RSL10/2.0.0//lib/ble_core/release\libblelib.a(gapc_task.o)
 .text.gapc_key_press_notification_cmd_handler
                0x001140d8       0x78 C:/Users/fg7fww/_Install/App/DemoBoards/RSL10/Packages_RSL10_2.0/ONSemiconductor/RSL10/2.0.0//lib/ble_core/release\libblelib.a(gapc_task.o)
 .text.gapc_sign_cmd_handler
                0x00114150       0x44 C:/Users/fg7fww/_Install/App/DemoBoards/RSL10/Packages_RSL10_2.0/ONSemiconductor/RSL10/2.0.0//lib/ble_core/release\libblelib.a(gapc_task.o)
 .text.gapc_security_cmd_handler
                0x00114194       0x4c C:/Users/fg7fww/_Install/App/DemoBoards/RSL10/Packages_RSL10_2.0/ONSemiconductor/RSL10/2.0.0//lib/ble_core/release\libblelib.a(gapc_task.o)
 .text.gapc_encrypt_cmd_handler
                0x001141e0       0x60 C:/Users/fg7fww/_Install/App/DemoBoards/RSL10/Packages_RSL10_2.0/ONSemiconductor/RSL10/2.0.0//lib/ble_core/release\libblelib.a(gapc_task.o)
 .text.gapc_bond_cmd_handler
                0x00114240       0x60 C:/Users/fg7fww/_Install/App/DemoBoards/RSL10/Packages_RSL10_2.0/ONSemiconductor/RSL10/2.0.0//lib/ble_core/release\libblelib.a(gapc_task.o)
 .text.gapc_param_update_cmd_handler
                0x001142a0      0x120 C:/Users/fg7fww/_Install/App/DemoBoards/RSL10/Packages_RSL10_2.0/ONSemiconductor/RSL10/2.0.0//lib/ble_core/release\libblelib.a(gapc_task.o)
 .text.gapc_get_info_cmd_handler
                0x001143c0      0x100 C:/Users/fg7fww/_Install/App/DemoBoards/RSL10/Packages_RSL10_2.0/ONSemiconductor/RSL10/2.0.0//lib/ble_core/release\libblelib.a(gapc_task.o)
 .text.AddBigHex256
                0x001144c0       0x4c C:/Users/fg7fww/_Install/App/DemoBoards/RSL10/Packages_RSL10_2.0/ONSemiconductor/RSL10/2.0.0//lib/ble_core/release\libblelib.a(ecc_p256.o)
                0x001144c0                AddBigHex256
 .text.Add2SelfBigHex256
                0x0011450c       0x42 C:/Users/fg7fww/_Install/App/DemoBoards/RSL10/Packages_RSL10_2.0/ONSemiconductor/RSL10/2.0.0//lib/ble_core/release\libblelib.a(ecc_p256.o)
                0x0011450c                Add2SelfBigHex256
 .text.SubtractBigHex256
                0x0011454e       0x62 C:/Users/fg7fww/_Install/App/DemoBoards/RSL10/Packages_RSL10_2.0/ONSemiconductor/RSL10/2.0.0//lib/ble_core/release\libblelib.a(ecc_p256.o)
                0x0011454e                SubtractBigHex256
 .text.SubtractFromSelfBigHex256
                0x001145b0       0x58 C:/Users/fg7fww/_Install/App/DemoBoards/RSL10/Packages_RSL10_2.0/ONSemiconductor/RSL10/2.0.0//lib/ble_core/release\libblelib.a(ecc_p256.o)
                0x001145b0                SubtractFromSelfBigHex256
 .text.AddP256  0x00114608       0x3c C:/Users/fg7fww/_Install/App/DemoBoards/RSL10/Packages_RSL10_2.0/ONSemiconductor/RSL10/2.0.0//lib/ble_core/release\libblelib.a(ecc_p256.o)
                0x00114608                AddP256
 .text.AddBigHexModP256
                0x00114644       0x48 C:/Users/fg7fww/_Install/App/DemoBoards/RSL10/Packages_RSL10_2.0/ONSemiconductor/RSL10/2.0.0//lib/ble_core/release\libblelib.a(ecc_p256.o)
                0x00114644                AddBigHexModP256
 .text.AddPdiv2_256
                0x0011468c      0x114 C:/Users/fg7fww/_Install/App/DemoBoards/RSL10/Packages_RSL10_2.0/ONSemiconductor/RSL10/2.0.0//lib/ble_core/release\libblelib.a(ecc_p256.o)
                0x0011468c                AddPdiv2_256
 .text.SubtractFromSelfBigHexSign256
                0x001147a0       0xcc C:/Users/fg7fww/_Install/App/DemoBoards/RSL10/Packages_RSL10_2.0/ONSemiconductor/RSL10/2.0.0//lib/ble_core/release\libblelib.a(ecc_p256.o)
                0x001147a0                SubtractFromSelfBigHexSign256
 .text.SubtractBigHexMod256
                0x0011486c       0xd4 C:/Users/fg7fww/_Install/App/DemoBoards/RSL10/Packages_RSL10_2.0/ONSemiconductor/RSL10/2.0.0//lib/ble_core/release\libblelib.a(ecc_p256.o)
                0x0011486c                SubtractBigHexMod256
 .text.MultiplyByU32ModP256
                0x00114940       0x2c C:/Users/fg7fww/_Install/App/DemoBoards/RSL10/Packages_RSL10_2.0/ONSemiconductor/RSL10/2.0.0//lib/ble_core/release\libblelib.a(ecc_p256.o)
                0x00114940                MultiplyByU32ModP256
 .text.specialModP256
                0x0011496c       0xb4 C:/Users/fg7fww/_Install/App/DemoBoards/RSL10/Packages_RSL10_2.0/ONSemiconductor/RSL10/2.0.0//lib/ble_core/release\libblelib.a(ecc_p256.o)
                0x0011496c                specialModP256
 .text.MultiplyBigHexModP256
                0x00114a20      0x15c C:/Users/fg7fww/_Install/App/DemoBoards/RSL10/Packages_RSL10_2.0/ONSemiconductor/RSL10/2.0.0//lib/ble_core/release\libblelib.a(ecc_p256.o)
                0x00114a20                MultiplyBigHexModP256
 .text.MultiplyBigHexByUint32_256
                0x00114b7c       0x40 C:/Users/fg7fww/_Install/App/DemoBoards/RSL10/Packages_RSL10_2.0/ONSemiconductor/RSL10/2.0.0//lib/ble_core/release\libblelib.a(ecc_p256.o)
                0x00114b7c                MultiplyBigHexByUint32_256
 .text.notEqual256
                0x00114bbc       0x20 C:/Users/fg7fww/_Install/App/DemoBoards/RSL10/Packages_RSL10_2.0/ONSemiconductor/RSL10/2.0.0//lib/ble_core/release\libblelib.a(ecc_p256.o)
                0x00114bbc                notEqual256
 .text.GF_Jacobian_Point_Double256
                0x00114bdc      0x1a8 C:/Users/fg7fww/_Install/App/DemoBoards/RSL10/Packages_RSL10_2.0/ONSemiconductor/RSL10/2.0.0//lib/ble_core/release\libblelib.a(ecc_p256.o)
                0x00114bdc                GF_Jacobian_Point_Double256
 .text.GF_Jacobian_Point_Addition256
                0x00114d84      0x550 C:/Users/fg7fww/_Install/App/DemoBoards/RSL10/Packages_RSL10_2.0/ONSemiconductor/RSL10/2.0.0//lib/ble_core/release\libblelib.a(ecc_p256.o)
                0x00114d84                GF_Jacobian_Point_Addition256
 .text.bigHexInversion256
                0x001152d4      0x288 C:/Users/fg7fww/_Install/App/DemoBoards/RSL10/Packages_RSL10_2.0/ONSemiconductor/RSL10/2.0.0//lib/ble_core/release\libblelib.a(ecc_p256.o)
                0x001152d4                bigHexInversion256
 .text.GF_Point_Jacobian_To_Affine256
                0x0011555c       0x2c C:/Users/fg7fww/_Install/App/DemoBoards/RSL10/Packages_RSL10_2.0/ONSemiconductor/RSL10/2.0.0//lib/ble_core/release\libblelib.a(ecc_p256.o)
                0x0011555c                GF_Point_Jacobian_To_Affine256
 .text.ecc_multiplication_event_handler
                0x00115588      0x21c C:/Users/fg7fww/_Install/App/DemoBoards/RSL10/Packages_RSL10_2.0/ONSemiconductor/RSL10/2.0.0//lib/ble_core/release\libblelib.a(ecc_p256.o)
 .text.ecc_init
                0x001157a4       0x34 C:/Users/fg7fww/_Install/App/DemoBoards/RSL10/Packages_RSL10_2.0/ONSemiconductor/RSL10/2.0.0//lib/ble_core/release\libblelib.a(ecc_p256.o)
                0x001157a4                ecc_init
 .text.ecc_generate_key256
                0x001157d8      0x278 C:/Users/fg7fww/_Install/App/DemoBoards/RSL10/Packages_RSL10_2.0/ONSemiconductor/RSL10/2.0.0//lib/ble_core/release\libblelib.a(ecc_p256.o)
                0x001157d8                ecc_generate_key256
 .text.ecc_gen_new_public_key
                0x00115a50       0x1c C:/Users/fg7fww/_Install/App/DemoBoards/RSL10/Packages_RSL10_2.0/ONSemiconductor/RSL10/2.0.0//lib/ble_core/release\libblelib.a(ecc_p256.o)
                0x00115a50                ecc_gen_new_public_key
 .text.ecc_gen_new_secret_key
                0x00115a6c       0xc4 C:/Users/fg7fww/_Install/App/DemoBoards/RSL10/Packages_RSL10_2.0/ONSemiconductor/RSL10/2.0.0//lib/ble_core/release\libblelib.a(ecc_p256.o)
                0x00115a6c                ecc_gen_new_secret_key
 .text.ea_conflict_check
                0x00115b30       0xa4 C:/Users/fg7fww/_Install/App/DemoBoards/RSL10/Packages_RSL10_2.0/ONSemiconductor/RSL10/2.0.0//lib/ble_core/release\libblelib.a(ea.o)
 .text.ea_elt_cancel
                0x00115bd4      0x118 C:/Users/fg7fww/_Install/App/DemoBoards/RSL10/Packages_RSL10_2.0/ONSemiconductor/RSL10/2.0.0//lib/ble_core/release\libblelib.a(ea.o)
                0x00115bd4                ea_elt_cancel
 .text.ea_init  0x00115cec       0x2c C:/Users/fg7fww/_Install/App/DemoBoards/RSL10/Packages_RSL10_2.0/ONSemiconductor/RSL10/2.0.0//lib/ble_core/release\libblelib.a(ea.o)
                0x00115cec                ea_init
 .text.ea_elt_create
                0x00115d18       0x1e C:/Users/fg7fww/_Install/App/DemoBoards/RSL10/Packages_RSL10_2.0/ONSemiconductor/RSL10/2.0.0//lib/ble_core/release\libblelib.a(ea.o)
                0x00115d18                ea_elt_create
 .text.ea_interval_create
                0x00115d36       0x18 C:/Users/fg7fww/_Install/App/DemoBoards/RSL10/Packages_RSL10_2.0/ONSemiconductor/RSL10/2.0.0//lib/ble_core/release\libblelib.a(ea.o)
                0x00115d36                ea_interval_create
 *fill*         0x00115d4e        0x2 
 .text.ea_interval_insert
                0x00115d50        0xc C:/Users/fg7fww/_Install/App/DemoBoards/RSL10/Packages_RSL10_2.0/ONSemiconductor/RSL10/2.0.0//lib/ble_core/release\libblelib.a(ea.o)
                0x00115d50                ea_interval_insert
 .text.ea_interval_remove
                0x00115d5c       0x10 C:/Users/fg7fww/_Install/App/DemoBoards/RSL10/Packages_RSL10_2.0/ONSemiconductor/RSL10/2.0.0//lib/ble_core/release\libblelib.a(ea.o)
                0x00115d5c                ea_interval_remove
 .text.ea_sw_isr
                0x00115d6c       0x24 C:/Users/fg7fww/_Install/App/DemoBoards/RSL10/Packages_RSL10_2.0/ONSemiconductor/RSL10/2.0.0//lib/ble_core/release\libblelib.a(ea.o)
                0x00115d6c                ea_sw_isr
 .text.ea_offset_req
                0x00115d90      0x194 C:/Users/fg7fww/_Install/App/DemoBoards/RSL10/Packages_RSL10_2.0/ONSemiconductor/RSL10/2.0.0//lib/ble_core/release\libblelib.a(ea.o)
                0x00115d90                ea_offset_req
 .text.ea_time_get_slot_rounded
                0x00115f24       0x28 C:/Users/fg7fww/_Install/App/DemoBoards/RSL10/Packages_RSL10_2.0/ONSemiconductor/RSL10/2.0.0//lib/ble_core/release\libblelib.a(ea.o)
                0x00115f24                ea_time_get_slot_rounded
 .text.ea_prog_timer
                0x00115f4c       0xf4 C:/Users/fg7fww/_Install/App/DemoBoards/RSL10/Packages_RSL10_2.0/ONSemiconductor/RSL10/2.0.0//lib/ble_core/release\libblelib.a(ea.o)
 .text.ea_elt_insert
                0x00116040      0x204 C:/Users/fg7fww/_Install/App/DemoBoards/RSL10/Packages_RSL10_2.0/ONSemiconductor/RSL10/2.0.0//lib/ble_core/release\libblelib.a(ea.o)
                0x00116040                ea_elt_insert
 .text.ea_elt_remove
                0x00116244       0x54 C:/Users/fg7fww/_Install/App/DemoBoards/RSL10/Packages_RSL10_2.0/ONSemiconductor/RSL10/2.0.0//lib/ble_core/release\libblelib.a(ea.o)
                0x00116244                ea_elt_remove
 .text.ea_finetimer_isr
                0x00116298       0xd0 C:/Users/fg7fww/_Install/App/DemoBoards/RSL10/Packages_RSL10_2.0/ONSemiconductor/RSL10/2.0.0//lib/ble_core/release\libblelib.a(ea.o)
                0x00116298                ea_finetimer_isr
 .text.ea_interval_duration_req
                0x00116368       0x9c C:/Users/fg7fww/_Install/App/DemoBoards/RSL10/Packages_RSL10_2.0/ONSemiconductor/RSL10/2.0.0//lib/ble_core/release\libblelib.a(ea.o)
                0x00116368                ea_interval_duration_req
 .text.hci_le_set_dft_phy_cmd_handler
                0x00116404       0x28 C:/Users/fg7fww/_Install/App/DemoBoards/RSL10/Packages_RSL10_2.0/ONSemiconductor/RSL10/2.0.0//lib/ble_core/release\libblelib.a(llm_hci.o)
 .text.hci_le_wr_suggted_dft_data_len_cmd_handler
                0x0011642c       0x34 C:/Users/fg7fww/_Install/App/DemoBoards/RSL10/Packages_RSL10_2.0/ONSemiconductor/RSL10/2.0.0//lib/ble_core/release\libblelib.a(llm_hci.o)
 .text.hci_rd_buff_size_cmd_handler
                0x00116460       0x26 C:/Users/fg7fww/_Install/App/DemoBoards/RSL10/Packages_RSL10_2.0/ONSemiconductor/RSL10/2.0.0//lib/ble_core/release\libblelib.a(llm_hci.o)
 .text.hci_rd_local_ver_info_cmd_handler
                0x00116486       0x30 C:/Users/fg7fww/_Install/App/DemoBoards/RSL10/Packages_RSL10_2.0/ONSemiconductor/RSL10/2.0.0//lib/ble_core/release\libblelib.a(llm_hci.o)
 *fill*         0x001164b6        0x2 
 .text.hci_le_rd_max_data_len_cmd_handler
                0x001164b8       0x34 C:/Users/fg7fww/_Install/App/DemoBoards/RSL10/Packages_RSL10_2.0/ONSemiconductor/RSL10/2.0.0//lib/ble_core/release\libblelib.a(llm_hci.o)
 .text.hci_le_rd_suggted_dft_data_len_cmd_handler
                0x001164ec       0x2c C:/Users/fg7fww/_Install/App/DemoBoards/RSL10/Packages_RSL10_2.0/ONSemiconductor/RSL10/2.0.0//lib/ble_core/release\libblelib.a(llm_hci.o)
 .text.hci_le_rd_wl_size_cmd_handler
                0x00116518       0x22 C:/Users/fg7fww/_Install/App/DemoBoards/RSL10/Packages_RSL10_2.0/ONSemiconductor/RSL10/2.0.0//lib/ble_core/release\libblelib.a(llm_hci.o)
 *fill*         0x0011653a        0x2 
 .text.hci_le_rd_adv_ch_tx_pw_cmd_handler
                0x0011653c       0x34 C:/Users/fg7fww/_Install/App/DemoBoards/RSL10/Packages_RSL10_2.0/ONSemiconductor/RSL10/2.0.0//lib/ble_core/release\libblelib.a(llm_hci.o)
 .text.hci_le_rd_buff_size_cmd_handler
                0x00116570       0x2c C:/Users/fg7fww/_Install/App/DemoBoards/RSL10/Packages_RSL10_2.0/ONSemiconductor/RSL10/2.0.0//lib/ble_core/release\libblelib.a(llm_hci.o)
 .text.hci_le_enh_privacy_mgmt_cmd_handler
                0x0011659c       0xb4 C:/Users/fg7fww/_Install/App/DemoBoards/RSL10/Packages_RSL10_2.0/ONSemiconductor/RSL10/2.0.0//lib/ble_core/release\libblelib.a(llm_hci.o)
 .text.hci_host_nb_cmp_pkts_cmd_handler
                0x00116650       0x3a C:/Users/fg7fww/_Install/App/DemoBoards/RSL10/Packages_RSL10_2.0/ONSemiconductor/RSL10/2.0.0//lib/ble_core/release\libblelib.a(llm_hci.o)
 .text.hci_host_buf_size_cmd_handler
                0x0011668a       0x1a C:/Users/fg7fww/_Install/App/DemoBoards/RSL10/Packages_RSL10_2.0/ONSemiconductor/RSL10/2.0.0//lib/ble_core/release\libblelib.a(llm_hci.o)
 .text.hci_set_evt_mask_page_2_cmd_handler
                0x001166a4       0x18 C:/Users/fg7fww/_Install/App/DemoBoards/RSL10/Packages_RSL10_2.0/ONSemiconductor/RSL10/2.0.0//lib/ble_core/release\libblelib.a(llm_hci.o)
 .text.hci_set_evt_mask_cmd_handler
                0x001166bc       0x18 C:/Users/fg7fww/_Install/App/DemoBoards/RSL10/Packages_RSL10_2.0/ONSemiconductor/RSL10/2.0.0//lib/ble_core/release\libblelib.a(llm_hci.o)
 .text.hci_set_ctrl_to_host_flow_ctrl_cmd_handler
                0x001166d4       0x2c C:/Users/fg7fww/_Install/App/DemoBoards/RSL10/Packages_RSL10_2.0/ONSemiconductor/RSL10/2.0.0//lib/ble_core/release\libblelib.a(llm_hci.o)
 .text.hci_rd_local_supp_feats_cmd_handler
                0x00116700       0x24 C:/Users/fg7fww/_Install/App/DemoBoards/RSL10/Packages_RSL10_2.0/ONSemiconductor/RSL10/2.0.0//lib/ble_core/release\libblelib.a(llm_hci.o)
 .text.hci_rd_local_supp_cmds_cmd_handler
                0x00116724       0x38 C:/Users/fg7fww/_Install/App/DemoBoards/RSL10/Packages_RSL10_2.0/ONSemiconductor/RSL10/2.0.0//lib/ble_core/release\libblelib.a(llm_hci.o)
 .text.hci_rd_bd_addr_cmd_handler
                0x0011675c       0x30 C:/Users/fg7fww/_Install/App/DemoBoards/RSL10/Packages_RSL10_2.0/ONSemiconductor/RSL10/2.0.0//lib/ble_core/release\libblelib.a(llm_hci.o)
 .text.hci_le_rd_supp_states_cmd_handler
                0x0011678c       0x30 C:/Users/fg7fww/_Install/App/DemoBoards/RSL10/Packages_RSL10_2.0/ONSemiconductor/RSL10/2.0.0//lib/ble_core/release\libblelib.a(llm_hci.o)
 .text.hci_le_rd_local_supp_feats_cmd_handler
                0x001167bc       0x30 C:/Users/fg7fww/_Install/App/DemoBoards/RSL10/Packages_RSL10_2.0/ONSemiconductor/RSL10/2.0.0//lib/ble_core/release\libblelib.a(llm_hci.o)
 .text.hci_le_set_evt_mask_cmd_handler
                0x001167ec       0x1c C:/Users/fg7fww/_Install/App/DemoBoards/RSL10/Packages_RSL10_2.0/ONSemiconductor/RSL10/2.0.0//lib/ble_core/release\libblelib.a(llm_hci.o)
 .text.hci_reset_cmd_handler
                0x00116808       0x14 C:/Users/fg7fww/_Install/App/DemoBoards/RSL10/Packages_RSL10_2.0/ONSemiconductor/RSL10/2.0.0//lib/ble_core/release\libblelib.a(llm_hci.o)
 .text.hci_le_test_mode_mngt_cmd_handler
                0x0011681c       0xbc C:/Users/fg7fww/_Install/App/DemoBoards/RSL10/Packages_RSL10_2.0/ONSemiconductor/RSL10/2.0.0//lib/ble_core/release\libblelib.a(llm_hci.o)
 .text.hci_le_rand_cmd_handler
                0x001168d8       0x46 C:/Users/fg7fww/_Install/App/DemoBoards/RSL10/Packages_RSL10_2.0/ONSemiconductor/RSL10/2.0.0//lib/ble_core/release\libblelib.a(llm_hci.o)
 *fill*         0x0011691e        0x2 
 .text.hci_le_enc_cmd_handler
                0x00116920       0x30 C:/Users/fg7fww/_Install/App/DemoBoards/RSL10/Packages_RSL10_2.0/ONSemiconductor/RSL10/2.0.0//lib/ble_core/release\libblelib.a(llm_hci.o)
 .text.hci_le_wl_mngt_cmd_handler
                0x00116950       0x8c C:/Users/fg7fww/_Install/App/DemoBoards/RSL10/Packages_RSL10_2.0/ONSemiconductor/RSL10/2.0.0//lib/ble_core/release\libblelib.a(llm_hci.o)
 .text.hci_le_set_host_ch_class_cmd_handler
                0x001169dc       0x54 C:/Users/fg7fww/_Install/App/DemoBoards/RSL10/Packages_RSL10_2.0/ONSemiconductor/RSL10/2.0.0//lib/ble_core/release\libblelib.a(llm_hci.o)
 .text.hci_le_create_con_cancel_cmd_handler
                0x00116a30       0x3c C:/Users/fg7fww/_Install/App/DemoBoards/RSL10/Packages_RSL10_2.0/ONSemiconductor/RSL10/2.0.0//lib/ble_core/release\libblelib.a(llm_hci.o)
 .text.hci_le_create_con_cmd_handler
                0x00116a6c       0x44 C:/Users/fg7fww/_Install/App/DemoBoards/RSL10/Packages_RSL10_2.0/ONSemiconductor/RSL10/2.0.0//lib/ble_core/release\libblelib.a(llm_hci.o)
 .text.hci_le_set_scan_en_cmd_handler
                0x00116ab0       0x64 C:/Users/fg7fww/_Install/App/DemoBoards/RSL10/Packages_RSL10_2.0/ONSemiconductor/RSL10/2.0.0//lib/ble_core/release\libblelib.a(llm_hci.o)
 .text.hci_le_set_scan_param_cmd_handler
                0x00116b14       0x26 C:/Users/fg7fww/_Install/App/DemoBoards/RSL10/Packages_RSL10_2.0/ONSemiconductor/RSL10/2.0.0//lib/ble_core/release\libblelib.a(llm_hci.o)
 *fill*         0x00116b3a        0x2 
 .text.hci_le_set_scan_rsp_data_cmd_handler
                0x00116b3c       0x5c C:/Users/fg7fww/_Install/App/DemoBoards/RSL10/Packages_RSL10_2.0/ONSemiconductor/RSL10/2.0.0//lib/ble_core/release\libblelib.a(llm_hci.o)
 .text.hci_le_set_adv_en_cmd_handler
                0x00116b98       0x5c C:/Users/fg7fww/_Install/App/DemoBoards/RSL10/Packages_RSL10_2.0/ONSemiconductor/RSL10/2.0.0//lib/ble_core/release\libblelib.a(llm_hci.o)
 .text.hci_le_set_adv_data_cmd_handler
                0x00116bf4       0x54 C:/Users/fg7fww/_Install/App/DemoBoards/RSL10/Packages_RSL10_2.0/ONSemiconductor/RSL10/2.0.0//lib/ble_core/release\libblelib.a(llm_hci.o)
 .text.hci_le_set_adv_param_cmd_handler
                0x00116c48       0x26 C:/Users/fg7fww/_Install/App/DemoBoards/RSL10/Packages_RSL10_2.0/ONSemiconductor/RSL10/2.0.0//lib/ble_core/release\libblelib.a(llm_hci.o)
 *fill*         0x00116c6e        0x2 
 .text.hci_le_set_rand_add_cmd_handler
                0x00116c70       0x34 C:/Users/fg7fww/_Install/App/DemoBoards/RSL10/Packages_RSL10_2.0/ONSemiconductor/RSL10/2.0.0//lib/ble_core/release\libblelib.a(llm_hci.o)
 .text.hci_le_generate_dhkey_cmd_handler
                0x00116ca4       0x40 C:/Users/fg7fww/_Install/App/DemoBoards/RSL10/Packages_RSL10_2.0/ONSemiconductor/RSL10/2.0.0//lib/ble_core/release\libblelib.a(llm_hci.o)
 .text.hci_le_rd_local_p256_public_key_cmd_handler
                0x00116ce4       0x4c C:/Users/fg7fww/_Install/App/DemoBoards/RSL10/Packages_RSL10_2.0/ONSemiconductor/RSL10/2.0.0//lib/ble_core/release\libblelib.a(llm_hci.o)
 .text.hci_le_enh_privacy_info_cmd_handler
                0x00116d30       0x5e C:/Users/fg7fww/_Install/App/DemoBoards/RSL10/Packages_RSL10_2.0/ONSemiconductor/RSL10/2.0.0//lib/ble_core/release\libblelib.a(llm_hci.o)
 *fill*         0x00116d8e        0x2 
 .text.hci_command_handler
                0x00116d90       0x30 C:/Users/fg7fww/_Install/App/DemoBoards/RSL10/Packages_RSL10_2.0/ONSemiconductor/RSL10/2.0.0//lib/ble_core/release\libblelib.a(llm_hci.o)
                0x00116d90                hci_command_handler
 .text.llc_ch_assess_local
                0x00116dc0       0x58 C:/Users/fg7fww/_Install/App/DemoBoards/RSL10/Packages_RSL10_2.0/ONSemiconductor/RSL10/2.0.0//lib/ble_core/release\libblelib.a(llc_ch_asses.o)
                0x00116dc0                llc_ch_assess_local
 .text.llc_ch_assess_get_local_ch_map
                0x00116e18       0x60 C:/Users/fg7fww/_Install/App/DemoBoards/RSL10/Packages_RSL10_2.0/ONSemiconductor/RSL10/2.0.0//lib/ble_core/release\libblelib.a(llc_ch_asses.o)
                0x00116e18                llc_ch_assess_get_local_ch_map
 .text.llc_ch_assess_get_current_ch_map
                0x00116e78       0x10 C:/Users/fg7fww/_Install/App/DemoBoards/RSL10/Packages_RSL10_2.0/ONSemiconductor/RSL10/2.0.0//lib/ble_core/release\libblelib.a(llc_ch_asses.o)
                0x00116e78                llc_ch_assess_get_current_ch_map
 .text.llc_ch_assess_reass_ch
                0x00116e88       0x98 C:/Users/fg7fww/_Install/App/DemoBoards/RSL10/Packages_RSL10_2.0/ONSemiconductor/RSL10/2.0.0//lib/ble_core/release\libblelib.a(llc_ch_asses.o)
                0x00116e88                llc_ch_assess_reass_ch
 .text.hci_le_set_phy_cmd_handler
                0x00116f20       0x70 C:/Users/fg7fww/_Install/App/DemoBoards/RSL10/Packages_RSL10_2.0/ONSemiconductor/RSL10/2.0.0//lib/ble_core/release\libblelib.a(llc_hci.o)
 .text.hci_le_rd_phy_cmd_handler
                0x00116f90       0x58 C:/Users/fg7fww/_Install/App/DemoBoards/RSL10/Packages_RSL10_2.0/ONSemiconductor/RSL10/2.0.0//lib/ble_core/release\libblelib.a(llc_hci.o)
 .text.hci_rd_auth_payl_to_cmd_handler
                0x00116fe8       0x50 C:/Users/fg7fww/_Install/App/DemoBoards/RSL10/Packages_RSL10_2.0/ONSemiconductor/RSL10/2.0.0//lib/ble_core/release\libblelib.a(llc_hci.o)
 .text.hci_rd_rssi_cmd_handler
                0x00117038       0x54 C:/Users/fg7fww/_Install/App/DemoBoards/RSL10/Packages_RSL10_2.0/ONSemiconductor/RSL10/2.0.0//lib/ble_core/release\libblelib.a(llc_hci.o)
 .text.hci_rd_tx_pwr_lvl_cmd_handler
                0x0011708c       0x78 C:/Users/fg7fww/_Install/App/DemoBoards/RSL10/Packages_RSL10_2.0/ONSemiconductor/RSL10/2.0.0//lib/ble_core/release\libblelib.a(llc_hci.o)
 .text.hci_le_set_data_len_cmd_handler
                0x00117104       0x84 C:/Users/fg7fww/_Install/App/DemoBoards/RSL10/Packages_RSL10_2.0/ONSemiconductor/RSL10/2.0.0//lib/ble_core/release\libblelib.a(llc_hci.o)
 .text.hci_le_rem_con_param_req_neg_reply_cmd_handler
                0x00117188       0x74 C:/Users/fg7fww/_Install/App/DemoBoards/RSL10/Packages_RSL10_2.0/ONSemiconductor/RSL10/2.0.0//lib/ble_core/release\libblelib.a(llc_hci.o)
 .text.hci_le_rem_con_param_req_reply_cmd_handler
                0x001171fc       0xec C:/Users/fg7fww/_Install/App/DemoBoards/RSL10/Packages_RSL10_2.0/ONSemiconductor/RSL10/2.0.0//lib/ble_core/release\libblelib.a(llc_hci.o)
 .text.hci_le_ltk_req_neg_reply_cmd_handler
                0x001172e8       0x8c C:/Users/fg7fww/_Install/App/DemoBoards/RSL10/Packages_RSL10_2.0/ONSemiconductor/RSL10/2.0.0//lib/ble_core/release\libblelib.a(llc_hci.o)
 .text.hci_disconnect_cmd_handler
                0x00117374       0x9c C:/Users/fg7fww/_Install/App/DemoBoards/RSL10/Packages_RSL10_2.0/ONSemiconductor/RSL10/2.0.0//lib/ble_core/release\libblelib.a(llc_hci.o)
 .text.hci_le_ltk_req_reply_cmd_handler
                0x00117410       0x8c C:/Users/fg7fww/_Install/App/DemoBoards/RSL10/Packages_RSL10_2.0/ONSemiconductor/RSL10/2.0.0//lib/ble_core/release\libblelib.a(llc_hci.o)
 .text.hci_le_rd_chnl_map_cmd_handler
                0x0011749c       0x54 C:/Users/fg7fww/_Install/App/DemoBoards/RSL10/Packages_RSL10_2.0/ONSemiconductor/RSL10/2.0.0//lib/ble_core/release\libblelib.a(llc_hci.o)
 .text.hci_le_start_enc_cmd_handler
                0x001174f0       0xd0 C:/Users/fg7fww/_Install/App/DemoBoards/RSL10/Packages_RSL10_2.0/ONSemiconductor/RSL10/2.0.0//lib/ble_core/release\libblelib.a(llc_hci.o)
 .text.hci_le_rd_rem_used_feats_cmd_handler
                0x001175c0       0x94 C:/Users/fg7fww/_Install/App/DemoBoards/RSL10/Packages_RSL10_2.0/ONSemiconductor/RSL10/2.0.0//lib/ble_core/release\libblelib.a(llc_hci.o)
 .text.hci_le_con_update_cmd_handler
                0x00117654      0x130 C:/Users/fg7fww/_Install/App/DemoBoards/RSL10/Packages_RSL10_2.0/ONSemiconductor/RSL10/2.0.0//lib/ble_core/release\libblelib.a(llc_hci.o)
 .text.hci_wr_auth_payl_to_cmd_handler
                0x00117784       0xac C:/Users/fg7fww/_Install/App/DemoBoards/RSL10/Packages_RSL10_2.0/ONSemiconductor/RSL10/2.0.0//lib/ble_core/release\libblelib.a(llc_hci.o)
 .text.hci_flush_cmd_handler
                0x00117830       0x40 C:/Users/fg7fww/_Install/App/DemoBoards/RSL10/Packages_RSL10_2.0/ONSemiconductor/RSL10/2.0.0//lib/ble_core/release\libblelib.a(llc_hci.o)
 .text.hci_rd_rem_ver_info_cmd_handler
                0x00117870       0x90 C:/Users/fg7fww/_Install/App/DemoBoards/RSL10/Packages_RSL10_2.0/ONSemiconductor/RSL10/2.0.0//lib/ble_core/release\libblelib.a(llc_hci.o)
 .text.llc_hci_command_handler
                0x00117900       0x30 C:/Users/fg7fww/_Install/App/DemoBoards/RSL10/Packages_RSL10_2.0/ONSemiconductor/RSL10/2.0.0//lib/ble_core/release\libblelib.a(llc_hci.o)
                0x00117900                llc_hci_command_handler
 .text.llc_hci_acl_data_tx_handler
                0x00117930       0x64 C:/Users/fg7fww/_Install/App/DemoBoards/RSL10/Packages_RSL10_2.0/ONSemiconductor/RSL10/2.0.0//lib/ble_core/release\libblelib.a(llc_hci.o)
                0x00117930                llc_hci_acl_data_tx_handler
 .text.l2c_code_le_flow_control_credit_handler
                0x00117994       0x8c C:/Users/fg7fww/_Install/App/DemoBoards/RSL10/Packages_RSL10_2.0/ONSemiconductor/RSL10/2.0.0//lib/ble_core/release\libblelib.a(l2cc_sig.o)
 .text.l2c_code_le_cb_conn_resp_handler
                0x00117a20       0xe8 C:/Users/fg7fww/_Install/App/DemoBoards/RSL10/Packages_RSL10_2.0/ONSemiconductor/RSL10/2.0.0//lib/ble_core/release\libblelib.a(l2cc_sig.o)
 .text.l2c_code_disconnection_resp_handler
                0x00117b08       0x52 C:/Users/fg7fww/_Install/App/DemoBoards/RSL10/Packages_RSL10_2.0/ONSemiconductor/RSL10/2.0.0//lib/ble_core/release\libblelib.a(l2cc_sig.o)
 *fill*         0x00117b5a        0x2 
 .text.l2c_code_le_cb_conn_req_handler
                0x00117b5c      0x168 C:/Users/fg7fww/_Install/App/DemoBoards/RSL10/Packages_RSL10_2.0/ONSemiconductor/RSL10/2.0.0//lib/ble_core/release\libblelib.a(l2cc_sig.o)
 .text.l2c_code_disconnection_req_handler
                0x00117cc4       0x3e C:/Users/fg7fww/_Install/App/DemoBoards/RSL10/Packages_RSL10_2.0/ONSemiconductor/RSL10/2.0.0//lib/ble_core/release\libblelib.a(l2cc_sig.o)
 *fill*         0x00117d02        0x2 
 .text.l2c_code_reject_handler
                0x00117d04       0xb4 C:/Users/fg7fww/_Install/App/DemoBoards/RSL10/Packages_RSL10_2.0/ONSemiconductor/RSL10/2.0.0//lib/ble_core/release\libblelib.a(l2cc_sig.o)
 .text.l2cc_sig_send_cmd_reject
                0x00117db8       0x60 C:/Users/fg7fww/_Install/App/DemoBoards/RSL10/Packages_RSL10_2.0/ONSemiconductor/RSL10/2.0.0//lib/ble_core/release\libblelib.a(l2cc_sig.o)
                0x00117db8                l2cc_sig_send_cmd_reject
 .text.l2c_code_conn_param_upd_resp_handler
                0x00117e18       0x38 C:/Users/fg7fww/_Install/App/DemoBoards/RSL10/Packages_RSL10_2.0/ONSemiconductor/RSL10/2.0.0//lib/ble_core/release\libblelib.a(l2cc_sig.o)
 .text.l2c_code_conn_param_upd_req_handler
                0x00117e50       0x3a C:/Users/fg7fww/_Install/App/DemoBoards/RSL10/Packages_RSL10_2.0/ONSemiconductor/RSL10/2.0.0//lib/ble_core/release\libblelib.a(l2cc_sig.o)
 *fill*         0x00117e8a        0x2 
 .text.l2cc_sig_pdu_recv_handler
                0x00117e8c       0x44 C:/Users/fg7fww/_Install/App/DemoBoards/RSL10/Packages_RSL10_2.0/ONSemiconductor/RSL10/2.0.0//lib/ble_core/release\libblelib.a(l2cc_sig.o)
                0x00117e8c                l2cc_sig_pdu_recv_handler
 .text.smpm_send_gen_rand_nb_req
                0x00117ed0       0x1a C:/Users/fg7fww/_Install/App/DemoBoards/RSL10/Packages_RSL10_2.0/ONSemiconductor/RSL10/2.0.0//lib/ble_core/release\libblelib.a(smpm_api.o)
 .text.smpm_gen_rand_addr
                0x00117eea       0x18 C:/Users/fg7fww/_Install/App/DemoBoards/RSL10/Packages_RSL10_2.0/ONSemiconductor/RSL10/2.0.0//lib/ble_core/release\libblelib.a(smpm_api.o)
                0x00117eea                smpm_gen_rand_addr
 .text.smpm_gen_rand_nb
                0x00117f02        0x4 C:/Users/fg7fww/_Install/App/DemoBoards/RSL10/Packages_RSL10_2.0/ONSemiconductor/RSL10/2.0.0//lib/ble_core/release\libblelib.a(smpm_api.o)
                0x00117f02                smpm_gen_rand_nb
 .text.smpm_send_encrypt_req
                0x00117f06       0x48 C:/Users/fg7fww/_Install/App/DemoBoards/RSL10/Packages_RSL10_2.0/ONSemiconductor/RSL10/2.0.0//lib/ble_core/release\libblelib.a(smpm_api.o)
                0x00117f06                smpm_send_encrypt_req
 .text.smpm_resolv_addr
                0x00117f4e       0x2e C:/Users/fg7fww/_Install/App/DemoBoards/RSL10/Packages_RSL10_2.0/ONSemiconductor/RSL10/2.0.0//lib/ble_core/release\libblelib.a(smpm_api.o)
                0x00117f4e                smpm_resolv_addr
 .text.smpm_use_enc_block
                0x00117f7c        0x4 C:/Users/fg7fww/_Install/App/DemoBoards/RSL10/Packages_RSL10_2.0/ONSemiconductor/RSL10/2.0.0//lib/ble_core/release\libblelib.a(smpm_api.o)
                0x00117f7c                smpm_use_enc_block
 .text.smpm_send_generate_dh_key
                0x00117f80       0x48 C:/Users/fg7fww/_Install/App/DemoBoards/RSL10/Packages_RSL10_2.0/ONSemiconductor/RSL10/2.0.0//lib/ble_core/release\libblelib.a(smpm_api.o)
                0x00117f80                smpm_send_generate_dh_key
 .text.smpc_send_use_enc_block_cmd
                0x00117fc8       0x50 C:/Users/fg7fww/_Install/App/DemoBoards/RSL10/Packages_RSL10_2.0/ONSemiconductor/RSL10/2.0.0//lib/ble_core/release\libblelib.a(smpc.o)
                0x00117fc8                smpc_send_use_enc_block_cmd
 .text.smpc_send_gen_dh_key_cmd
                0x00118018       0x50 C:/Users/fg7fww/_Install/App/DemoBoards/RSL10/Packages_RSL10_2.0/ONSemiconductor/RSL10/2.0.0//lib/ble_core/release\libblelib.a(smpc.o)
                0x00118018                smpc_send_gen_dh_key_cmd
 .text.smpc_send_start_enc_cmd
                0x00118068       0xa0 C:/Users/fg7fww/_Install/App/DemoBoards/RSL10/Packages_RSL10_2.0/ONSemiconductor/RSL10/2.0.0//lib/ble_core/release\libblelib.a(smpc.o)
                0x00118068                smpc_send_start_enc_cmd
 .text.smpc_send_ltk_req_rsp
                0x00118108       0x88 C:/Users/fg7fww/_Install/App/DemoBoards/RSL10/Packages_RSL10_2.0/ONSemiconductor/RSL10/2.0.0//lib/ble_core/release\libblelib.a(smpc.o)
                0x00118108                smpc_send_ltk_req_rsp
 .text.smpc_send_pairing_req_ind
                0x00118190      0x104 C:/Users/fg7fww/_Install/App/DemoBoards/RSL10/Packages_RSL10_2.0/ONSemiconductor/RSL10/2.0.0//lib/ble_core/release\libblelib.a(smpc.o)
                0x00118190                smpc_send_pairing_req_ind
 .text.smpc_send_pairing_ind
                0x00118294       0xd8 C:/Users/fg7fww/_Install/App/DemoBoards/RSL10/Packages_RSL10_2.0/ONSemiconductor/RSL10/2.0.0//lib/ble_core/release\libblelib.a(smpc.o)
                0x00118294                smpc_send_pairing_ind
 .text.smpc_check_pairing_feat
                0x0011836c       0x22 C:/Users/fg7fww/_Install/App/DemoBoards/RSL10/Packages_RSL10_2.0/ONSemiconductor/RSL10/2.0.0//lib/ble_core/release\libblelib.a(smpc.o)
                0x0011836c                smpc_check_pairing_feat
 *fill*         0x0011838e        0x2 
 .text.smpc_check_max_key_size
                0x00118390       0x28 C:/Users/fg7fww/_Install/App/DemoBoards/RSL10/Packages_RSL10_2.0/ONSemiconductor/RSL10/2.0.0//lib/ble_core/release\libblelib.a(smpc.o)
                0x00118390                smpc_check_max_key_size
 .text.smpc_check_key_distrib
                0x001183b8       0x78 C:/Users/fg7fww/_Install/App/DemoBoards/RSL10/Packages_RSL10_2.0/ONSemiconductor/RSL10/2.0.0//lib/ble_core/release\libblelib.a(smpc.o)
                0x001183b8                smpc_check_key_distrib
 .text.smpc_xor
                0x00118430       0x20 C:/Users/fg7fww/_Install/App/DemoBoards/RSL10/Packages_RSL10_2.0/ONSemiconductor/RSL10/2.0.0//lib/ble_core/release\libblelib.a(smpc.o)
                0x00118430                smpc_xor
 .text.smpc_generate_l
                0x00118450       0x7c C:/Users/fg7fww/_Install/App/DemoBoards/RSL10/Packages_RSL10_2.0/ONSemiconductor/RSL10/2.0.0//lib/ble_core/release\libblelib.a(smpc.o)
                0x00118450                smpc_generate_l
 .text.smpc_generate_ci
                0x001184cc       0x7c C:/Users/fg7fww/_Install/App/DemoBoards/RSL10/Packages_RSL10_2.0/ONSemiconductor/RSL10/2.0.0//lib/ble_core/release\libblelib.a(smpc.o)
                0x001184cc                smpc_generate_ci
 .text.smpc_generate_rand
                0x00118548       0x30 C:/Users/fg7fww/_Install/App/DemoBoards/RSL10/Packages_RSL10_2.0/ONSemiconductor/RSL10/2.0.0//lib/ble_core/release\libblelib.a(smpc.o)
                0x00118548                smpc_generate_rand
 .text.smpc_get_next_passkey_bit
                0x00118578       0x30 C:/Users/fg7fww/_Install/App/DemoBoards/RSL10/Packages_RSL10_2.0/ONSemiconductor/RSL10/2.0.0//lib/ble_core/release\libblelib.a(smpc.o)
                0x00118578                smpc_get_next_passkey_bit
 .text.smpc_generate_e1
                0x001185a8       0xc8 C:/Users/fg7fww/_Install/App/DemoBoards/RSL10/Packages_RSL10_2.0/ONSemiconductor/RSL10/2.0.0//lib/ble_core/release\libblelib.a(smpc.o)
                0x001185a8                smpc_generate_e1
 .text.smpc_generate_cfm
                0x00118670       0x90 C:/Users/fg7fww/_Install/App/DemoBoards/RSL10/Packages_RSL10_2.0/ONSemiconductor/RSL10/2.0.0//lib/ble_core/release\libblelib.a(smpc.o)
                0x00118670                smpc_generate_cfm
 .text.smpc_generate_stk
                0x00118700       0x4c C:/Users/fg7fww/_Install/App/DemoBoards/RSL10/Packages_RSL10_2.0/ONSemiconductor/RSL10/2.0.0//lib/ble_core/release\libblelib.a(smpc.o)
                0x00118700                smpc_generate_stk
 .text.smpc_calc_subkeys
                0x0011874c       0x82 C:/Users/fg7fww/_Install/App/DemoBoards/RSL10/Packages_RSL10_2.0/ONSemiconductor/RSL10/2.0.0//lib/ble_core/release\libblelib.a(smpc.o)
                0x0011874c                smpc_calc_subkeys
 *fill*         0x001187ce        0x2 
 .text.smpc_clear_timeout_timer
                0x001187d0       0x38 C:/Users/fg7fww/_Install/App/DemoBoards/RSL10/Packages_RSL10_2.0/ONSemiconductor/RSL10/2.0.0//lib/ble_core/release\libblelib.a(smpc.o)
                0x001187d0                smpc_clear_timeout_timer
 .text.smpc_launch_rep_att_timer
                0x00118808       0x4c C:/Users/fg7fww/_Install/App/DemoBoards/RSL10/Packages_RSL10_2.0/ONSemiconductor/RSL10/2.0.0//lib/ble_core/release\libblelib.a(smpc.o)
                0x00118808                smpc_launch_rep_att_timer
 .text.smpc_check_repeated_attempts
                0x00118854       0x60 C:/Users/fg7fww/_Install/App/DemoBoards/RSL10/Packages_RSL10_2.0/ONSemiconductor/RSL10/2.0.0//lib/ble_core/release\libblelib.a(smpc.o)
                0x00118854                smpc_check_repeated_attempts
 .text.smpc_pairing_end
                0x001188b4       0x68 C:/Users/fg7fww/_Install/App/DemoBoards/RSL10/Packages_RSL10_2.0/ONSemiconductor/RSL10/2.0.0//lib/ble_core/release\libblelib.a(smpc.o)
                0x001188b4                smpc_pairing_end
 .text.smpc_get_key_sec_prop
                0x0011891c       0xd0 C:/Users/fg7fww/_Install/App/DemoBoards/RSL10/Packages_RSL10_2.0/ONSemiconductor/RSL10/2.0.0//lib/ble_core/release\libblelib.a(smpc.o)
                0x0011891c                smpc_get_key_sec_prop
 .text.smpc_is_sec_mode_reached
                0x001189ec       0x30 C:/Users/fg7fww/_Install/App/DemoBoards/RSL10/Packages_RSL10_2.0/ONSemiconductor/RSL10/2.0.0//lib/ble_core/release\libblelib.a(smpc.o)
                0x001189ec                smpc_is_sec_mode_reached
 .text.smpc_pdu_send
                0x00118a1c       0x98 C:/Users/fg7fww/_Install/App/DemoBoards/RSL10/Packages_RSL10_2.0/ONSemiconductor/RSL10/2.0.0//lib/ble_core/release\libblelib.a(smpc.o)
                0x00118a1c                smpc_pdu_send
 .text.smpc_tkdp_send_continue
                0x00118ab4       0xe0 C:/Users/fg7fww/_Install/App/DemoBoards/RSL10/Packages_RSL10_2.0/ONSemiconductor/RSL10/2.0.0//lib/ble_core/release\libblelib.a(smpc.o)
                0x00118ab4                smpc_tkdp_send_continue
 .text.smpc_tkdp_send_start
                0x00118b94       0x2c C:/Users/fg7fww/_Install/App/DemoBoards/RSL10/Packages_RSL10_2.0/ONSemiconductor/RSL10/2.0.0//lib/ble_core/release\libblelib.a(smpc.o)
                0x00118b94                smpc_tkdp_send_start
 .text.smpc_tkdp_rcp_continue
                0x00118bc0       0x98 C:/Users/fg7fww/_Install/App/DemoBoards/RSL10/Packages_RSL10_2.0/ONSemiconductor/RSL10/2.0.0//lib/ble_core/release\libblelib.a(smpc.o)
                0x00118bc0                smpc_tkdp_rcp_continue
 .text.smpc_tkdp_rcp_start
                0x00118c58       0x2c C:/Users/fg7fww/_Install/App/DemoBoards/RSL10/Packages_RSL10_2.0/ONSemiconductor/RSL10/2.0.0//lib/ble_core/release\libblelib.a(smpc.o)
                0x00118c58                smpc_tkdp_rcp_start
 .text.smpc_handle_enc_change_evt
                0x00118c84      0x124 C:/Users/fg7fww/_Install/App/DemoBoards/RSL10/Packages_RSL10_2.0/ONSemiconductor/RSL10/2.0.0//lib/ble_core/release\libblelib.a(smpc.o)
                0x00118c84                smpc_handle_enc_change_evt
 .text.smpc_pdu_recv
                0x00118da8       0x5c C:/Users/fg7fww/_Install/App/DemoBoards/RSL10/Packages_RSL10_2.0/ONSemiconductor/RSL10/2.0.0//lib/ble_core/release\libblelib.a(smpc.o)
                0x00118da8                smpc_pdu_recv
 .text.smpc_initiate_dhkey_check
                0x00118e04       0xf4 C:/Users/fg7fww/_Install/App/DemoBoards/RSL10/Packages_RSL10_2.0/ONSemiconductor/RSL10/2.0.0//lib/ble_core/release\libblelib.a(smpc.o)
                0x00118e04                smpc_initiate_dhkey_check
 .text.smpc_init_mac_key_calculation
                0x00118ef8       0xac C:/Users/fg7fww/_Install/App/DemoBoards/RSL10/Packages_RSL10_2.0/ONSemiconductor/RSL10/2.0.0//lib/ble_core/release\libblelib.a(smpc.o)
                0x00118ef8                smpc_init_mac_key_calculation
 .text.smpc_handle_dh_key_check_complete
                0x00118fa4       0x3c C:/Users/fg7fww/_Install/App/DemoBoards/RSL10/Packages_RSL10_2.0/ONSemiconductor/RSL10/2.0.0//lib/ble_core/release\libblelib.a(smpc.o)
                0x00118fa4                smpc_handle_dh_key_check_complete
 .text.smpc_initiate_dhkey_verification
                0x00118fe0       0xe0 C:/Users/fg7fww/_Install/App/DemoBoards/RSL10/Packages_RSL10_2.0/ONSemiconductor/RSL10/2.0.0//lib/ble_core/release\libblelib.a(smpc.o)
                0x00118fe0                smpc_initiate_dhkey_verification
 .text.smpc_secure_connections_enabled
                0x001190c0       0x10 C:/Users/fg7fww/_Install/App/DemoBoards/RSL10/Packages_RSL10_2.0/ONSemiconductor/RSL10/2.0.0//lib/ble_core/release\libblelib.a(smpc.o)
                0x001190c0                smpc_secure_connections_enabled
 .text.smpc_pairing_start
                0x001190d0       0xb4 C:/Users/fg7fww/_Install/App/DemoBoards/RSL10/Packages_RSL10_2.0/ONSemiconductor/RSL10/2.0.0//lib/ble_core/release\libblelib.a(smpc_api.o)
                0x001190d0                smpc_pairing_start
 .text.smpc_pairing_tk_exch
                0x00119184      0x10c C:/Users/fg7fww/_Install/App/DemoBoards/RSL10/Packages_RSL10_2.0/ONSemiconductor/RSL10/2.0.0//lib/ble_core/release\libblelib.a(smpc_api.o)
                0x00119184                smpc_pairing_tk_exch
 .text.smpc_pairing_ltk_exch
                0x00119290       0x74 C:/Users/fg7fww/_Install/App/DemoBoards/RSL10/Packages_RSL10_2.0/ONSemiconductor/RSL10/2.0.0//lib/ble_core/release\libblelib.a(smpc_api.o)
                0x00119290                smpc_pairing_ltk_exch
 .text.smpc_pairing_irk_exch
                0x00119304       0x40 C:/Users/fg7fww/_Install/App/DemoBoards/RSL10/Packages_RSL10_2.0/ONSemiconductor/RSL10/2.0.0//lib/ble_core/release\libblelib.a(smpc_api.o)
                0x00119304                smpc_pairing_irk_exch
 .text.smpc_pairing_oob_exch
                0x00119344       0xc0 C:/Users/fg7fww/_Install/App/DemoBoards/RSL10/Packages_RSL10_2.0/ONSemiconductor/RSL10/2.0.0//lib/ble_core/release\libblelib.a(smpc_api.o)
                0x00119344                smpc_pairing_oob_exch
 .text.smpc_pairing_nc_exch
                0x00119404       0x54 C:/Users/fg7fww/_Install/App/DemoBoards/RSL10/Packages_RSL10_2.0/ONSemiconductor/RSL10/2.0.0//lib/ble_core/release\libblelib.a(smpc_api.o)
                0x00119404                smpc_pairing_nc_exch
 .text.smpc_pairing_csrk_exch
                0x00119458       0x50 C:/Users/fg7fww/_Install/App/DemoBoards/RSL10/Packages_RSL10_2.0/ONSemiconductor/RSL10/2.0.0//lib/ble_core/release\libblelib.a(smpc_api.o)
                0x00119458                smpc_pairing_csrk_exch
 .text.smpc_pairing_rsp
                0x001194a8      0x134 C:/Users/fg7fww/_Install/App/DemoBoards/RSL10/Packages_RSL10_2.0/ONSemiconductor/RSL10/2.0.0//lib/ble_core/release\libblelib.a(smpc_api.o)
                0x001194a8                smpc_pairing_rsp
 .text.smpc_pairing_req_handler
                0x001195dc       0x48 C:/Users/fg7fww/_Install/App/DemoBoards/RSL10/Packages_RSL10_2.0/ONSemiconductor/RSL10/2.0.0//lib/ble_core/release\libblelib.a(smpc_api.o)
                0x001195dc                smpc_pairing_req_handler
 .text.smpc_security_req_send
                0x00119624       0x5c C:/Users/fg7fww/_Install/App/DemoBoards/RSL10/Packages_RSL10_2.0/ONSemiconductor/RSL10/2.0.0//lib/ble_core/release\libblelib.a(smpc_api.o)
                0x00119624                smpc_security_req_send
 .text.smpc_encrypt_start
                0x00119680       0x24 C:/Users/fg7fww/_Install/App/DemoBoards/RSL10/Packages_RSL10_2.0/ONSemiconductor/RSL10/2.0.0//lib/ble_core/release\libblelib.a(smpc_api.o)
                0x00119680                smpc_encrypt_start
 .text.smpc_encrypt_start_handler
                0x001196a4       0x34 C:/Users/fg7fww/_Install/App/DemoBoards/RSL10/Packages_RSL10_2.0/ONSemiconductor/RSL10/2.0.0//lib/ble_core/release\libblelib.a(smpc_api.o)
                0x001196a4                smpc_encrypt_start_handler
 .text.smpc_encrypt_cfm
                0x001196d8       0x34 C:/Users/fg7fww/_Install/App/DemoBoards/RSL10/Packages_RSL10_2.0/ONSemiconductor/RSL10/2.0.0//lib/ble_core/release\libblelib.a(smpc_api.o)
                0x001196d8                smpc_encrypt_cfm
 .text.smpc_sign_command
                0x0011970c       0xc0 C:/Users/fg7fww/_Install/App/DemoBoards/RSL10/Packages_RSL10_2.0/ONSemiconductor/RSL10/2.0.0//lib/ble_core/release\libblelib.a(smpc_api.o)
                0x0011970c                smpc_sign_command
 .text.smpc_sign_cont
                0x001197cc      0x1a4 C:/Users/fg7fww/_Install/App/DemoBoards/RSL10/Packages_RSL10_2.0/ONSemiconductor/RSL10/2.0.0//lib/ble_core/release\libblelib.a(smpc_api.o)
                0x001197cc                smpc_sign_cont
 .text.smpc_calc_confirm_cont
                0x00119970      0x58c C:/Users/fg7fww/_Install/App/DemoBoards/RSL10/Packages_RSL10_2.0/ONSemiconductor/RSL10/2.0.0//lib/ble_core/release\libblelib.a(smpc_api.o)
                0x00119970                smpc_calc_confirm_cont
 .text.smpc_confirm_gen_rand
                0x00119efc      0x22c C:/Users/fg7fww/_Install/App/DemoBoards/RSL10/Packages_RSL10_2.0/ONSemiconductor/RSL10/2.0.0//lib/ble_core/release\libblelib.a(smpc_api.o)
                0x00119efc                smpc_confirm_gen_rand
 .text.smpc_key_press_notification_ind
                0x0011a128       0x20 C:/Users/fg7fww/_Install/App/DemoBoards/RSL10/Packages_RSL10_2.0/ONSemiconductor/RSL10/2.0.0//lib/ble_core/release\libblelib.a(smpc_api.o)
                0x0011a128                smpc_key_press_notification_ind
 .text.smpc_f4_complete
                0x0011a148       0x30 C:/Users/fg7fww/_Install/App/DemoBoards/RSL10/Packages_RSL10_2.0/ONSemiconductor/RSL10/2.0.0//lib/ble_core/release\libblelib.a(smpc_crypto.o)
                0x0011a148                smpc_f4_complete
 .text.smpc_g2_complete
                0x0011a178       0x30 C:/Users/fg7fww/_Install/App/DemoBoards/RSL10/Packages_RSL10_2.0/ONSemiconductor/RSL10/2.0.0//lib/ble_core/release\libblelib.a(smpc_crypto.o)
                0x0011a178                smpc_g2_complete
 .text.smpc_f5_complete
                0x0011a1a8       0x34 C:/Users/fg7fww/_Install/App/DemoBoards/RSL10/Packages_RSL10_2.0/ONSemiconductor/RSL10/2.0.0//lib/ble_core/release\libblelib.a(smpc_crypto.o)
                0x0011a1a8                smpc_f5_complete
 .text.smpc_f6_complete
                0x0011a1dc       0x30 C:/Users/fg7fww/_Install/App/DemoBoards/RSL10/Packages_RSL10_2.0/ONSemiconductor/RSL10/2.0.0//lib/ble_core/release\libblelib.a(smpc_crypto.o)
                0x0011a1dc                smpc_f6_complete
 .text.smpc_aes_cmac_init
                0x0011a20c       0x4c C:/Users/fg7fww/_Install/App/DemoBoards/RSL10/Packages_RSL10_2.0/ONSemiconductor/RSL10/2.0.0//lib/ble_core/release\libblelib.a(smpc_crypto.o)
                0x0011a20c                smpc_aes_cmac_init
 .text.smpc_f4_Init
                0x0011a258       0x78 C:/Users/fg7fww/_Install/App/DemoBoards/RSL10/Packages_RSL10_2.0/ONSemiconductor/RSL10/2.0.0//lib/ble_core/release\libblelib.a(smpc_crypto.o)
                0x0011a258                smpc_f4_Init
 .text.smpc_g2_init
                0x0011a2d0       0x88 C:/Users/fg7fww/_Install/App/DemoBoards/RSL10/Packages_RSL10_2.0/ONSemiconductor/RSL10/2.0.0//lib/ble_core/release\libblelib.a(smpc_crypto.o)
                0x0011a2d0                smpc_g2_init
 .text.smpc_f5_init
                0x0011a358       0xe4 C:/Users/fg7fww/_Install/App/DemoBoards/RSL10/Packages_RSL10_2.0/ONSemiconductor/RSL10/2.0.0//lib/ble_core/release\libblelib.a(smpc_crypto.o)
                0x0011a358                smpc_f5_init
 .text.smpc_f6_init
                0x0011a43c       0xc8 C:/Users/fg7fww/_Install/App/DemoBoards/RSL10/Packages_RSL10_2.0/ONSemiconductor/RSL10/2.0.0//lib/ble_core/release\libblelib.a(smpc_crypto.o)
                0x0011a43c                smpc_f6_init
 .text.smpc_XOR_16_Byte_Array
                0x0011a504       0x20 C:/Users/fg7fww/_Install/App/DemoBoards/RSL10/Packages_RSL10_2.0/ONSemiconductor/RSL10/2.0.0//lib/ble_core/release\libblelib.a(smpc_crypto.o)
                0x0011a504                smpc_XOR_16_Byte_Array
 .text.smpc_aes_cmac_complete
                0x0011a524       0x4c C:/Users/fg7fww/_Install/App/DemoBoards/RSL10/Packages_RSL10_2.0/ONSemiconductor/RSL10/2.0.0//lib/ble_core/release\libblelib.a(smpc_crypto.o)
                0x0011a524                smpc_aes_cmac_complete
 .text.smpc_ShiftLeft1Bit16ByteNum
                0x0011a570       0x28 C:/Users/fg7fww/_Install/App/DemoBoards/RSL10/Packages_RSL10_2.0/ONSemiconductor/RSL10/2.0.0//lib/ble_core/release\libblelib.a(smpc_crypto.o)
                0x0011a570                smpc_ShiftLeft1Bit16ByteNum
 .text.smpc_aes_cmac_continue
                0x0011a598      0x140 C:/Users/fg7fww/_Install/App/DemoBoards/RSL10/Packages_RSL10_2.0/ONSemiconductor/RSL10/2.0.0//lib/ble_core/release\libblelib.a(smpc_crypto.o)
                0x0011a598                smpc_aes_cmac_continue
 .text.smpc_process_aes_cmac
                0x0011a6d8       0x44 C:/Users/fg7fww/_Install/App/DemoBoards/RSL10/Packages_RSL10_2.0/ONSemiconductor/RSL10/2.0.0//lib/ble_core/release\libblelib.a(smpc_crypto.o)
                0x0011a6d8                smpc_process_aes_cmac
 .text.smpc_construct_pair_fail_pdu
                0x0011a71c        0x6 C:/Users/fg7fww/_Install/App/DemoBoards/RSL10/Packages_RSL10_2.0/ONSemiconductor/RSL10/2.0.0//lib/ble_core/release\libblelib.a(smpc_util.o)
 .text.smpc_construct_sec_req_pdu
                0x0011a722        0x6 C:/Users/fg7fww/_Install/App/DemoBoards/RSL10/Packages_RSL10_2.0/ONSemiconductor/RSL10/2.0.0//lib/ble_core/release\libblelib.a(smpc_util.o)
 .text.smpc_construcpublic_key_t_pdu
                0x0011a728       0x1a C:/Users/fg7fww/_Install/App/DemoBoards/RSL10/Packages_RSL10_2.0/ONSemiconductor/RSL10/2.0.0//lib/ble_core/release\libblelib.a(smpc_util.o)
 .text.smpc_construct_keypress_notification_pdu
                0x0011a742        0x6 C:/Users/fg7fww/_Install/App/DemoBoards/RSL10/Packages_RSL10_2.0/ONSemiconductor/RSL10/2.0.0//lib/ble_core/release\libblelib.a(smpc_util.o)
 .text.smpc_construct_dhkey_check_pdu
                0x0011a748       0x14 C:/Users/fg7fww/_Install/App/DemoBoards/RSL10/Packages_RSL10_2.0/ONSemiconductor/RSL10/2.0.0//lib/ble_core/release\libblelib.a(smpc_util.o)
 .text.smpc_construct_sign_info_pdu
                0x0011a75c       0x14 C:/Users/fg7fww/_Install/App/DemoBoards/RSL10/Packages_RSL10_2.0/ONSemiconductor/RSL10/2.0.0//lib/ble_core/release\libblelib.a(smpc_util.o)
 .text.smpc_construct_id_info_pdu
                0x0011a770       0x14 C:/Users/fg7fww/_Install/App/DemoBoards/RSL10/Packages_RSL10_2.0/ONSemiconductor/RSL10/2.0.0//lib/ble_core/release\libblelib.a(smpc_util.o)
 .text.smpc_construct_mst_id_pdu
                0x0011a784       0x10 C:/Users/fg7fww/_Install/App/DemoBoards/RSL10/Packages_RSL10_2.0/ONSemiconductor/RSL10/2.0.0//lib/ble_core/release\libblelib.a(smpc_util.o)
 .text.smpc_construct_enc_info_pdu
                0x0011a794       0x14 C:/Users/fg7fww/_Install/App/DemoBoards/RSL10/Packages_RSL10_2.0/ONSemiconductor/RSL10/2.0.0//lib/ble_core/release\libblelib.a(smpc_util.o)
 .text.smpc_construct_pair_rand_pdu
                0x0011a7a8       0x14 C:/Users/fg7fww/_Install/App/DemoBoards/RSL10/Packages_RSL10_2.0/ONSemiconductor/RSL10/2.0.0//lib/ble_core/release\libblelib.a(smpc_util.o)
 .text.smpc_construct_pair_cfm_pdu
                0x0011a7bc       0x14 C:/Users/fg7fww/_Install/App/DemoBoards/RSL10/Packages_RSL10_2.0/ONSemiconductor/RSL10/2.0.0//lib/ble_core/release\libblelib.a(smpc_util.o)
 .text.smpc_construct_pair_rsp_pdu
                0x0011a7d0        0xe C:/Users/fg7fww/_Install/App/DemoBoards/RSL10/Packages_RSL10_2.0/ONSemiconductor/RSL10/2.0.0//lib/ble_core/release\libblelib.a(smpc_util.o)
 .text.smpc_construct_pair_req_pdu
                0x0011a7de        0xe C:/Users/fg7fww/_Install/App/DemoBoards/RSL10/Packages_RSL10_2.0/ONSemiconductor/RSL10/2.0.0//lib/ble_core/release\libblelib.a(smpc_util.o)
 .text.smpc_construct_id_addr_info_pdu
                0x0011a7ec       0x20 C:/Users/fg7fww/_Install/App/DemoBoards/RSL10/Packages_RSL10_2.0/ONSemiconductor/RSL10/2.0.0//lib/ble_core/release\libblelib.a(smpc_util.o)
 .text.smpc_recv_keypress_notification_pdu
                0x0011a80c       0x48 C:/Users/fg7fww/_Install/App/DemoBoards/RSL10/Packages_RSL10_2.0/ONSemiconductor/RSL10/2.0.0//lib/ble_core/release\libblelib.a(smpc_util.o)
 .text.smpc_recv_dhkey_check_pdu
                0x0011a854       0x5c C:/Users/fg7fww/_Install/App/DemoBoards/RSL10/Packages_RSL10_2.0/ONSemiconductor/RSL10/2.0.0//lib/ble_core/release\libblelib.a(smpc_util.o)
 .text.smpc_recv_public_key_pdu
                0x0011a8b0       0xbc C:/Users/fg7fww/_Install/App/DemoBoards/RSL10/Packages_RSL10_2.0/ONSemiconductor/RSL10/2.0.0//lib/ble_core/release\libblelib.a(smpc_util.o)
 .text.smpc_recv_id_addr_info_pdu
                0x0011a96c       0x60 C:/Users/fg7fww/_Install/App/DemoBoards/RSL10/Packages_RSL10_2.0/ONSemiconductor/RSL10/2.0.0//lib/ble_core/release\libblelib.a(smpc_util.o)
 .text.smpc_recv_id_info_pdu
                0x0011a9cc       0x3c C:/Users/fg7fww/_Install/App/DemoBoards/RSL10/Packages_RSL10_2.0/ONSemiconductor/RSL10/2.0.0//lib/ble_core/release\libblelib.a(smpc_util.o)
 .text.smpc_recv_enc_info_pdu
                0x0011aa08       0x3c C:/Users/fg7fww/_Install/App/DemoBoards/RSL10/Packages_RSL10_2.0/ONSemiconductor/RSL10/2.0.0//lib/ble_core/release\libblelib.a(smpc_util.o)
 .text.smpc_recv_mst_id_pdu
                0x0011aa44       0x6c C:/Users/fg7fww/_Install/App/DemoBoards/RSL10/Packages_RSL10_2.0/ONSemiconductor/RSL10/2.0.0//lib/ble_core/release\libblelib.a(smpc_util.o)
 .text.smpc_recv_pair_fail_pdu
                0x0011aab0       0x40 C:/Users/fg7fww/_Install/App/DemoBoards/RSL10/Packages_RSL10_2.0/ONSemiconductor/RSL10/2.0.0//lib/ble_core/release\libblelib.a(smpc_util.o)
 .text.smpc_recv_pair_rand_pdu
                0x0011aaf0      0x1e8 C:/Users/fg7fww/_Install/App/DemoBoards/RSL10/Packages_RSL10_2.0/ONSemiconductor/RSL10/2.0.0//lib/ble_core/release\libblelib.a(smpc_util.o)
 .text.smpc_recv_pair_cfm_pdu
                0x0011acd8      0x114 C:/Users/fg7fww/_Install/App/DemoBoards/RSL10/Packages_RSL10_2.0/ONSemiconductor/RSL10/2.0.0//lib/ble_core/release\libblelib.a(smpc_util.o)
 .text.smpc_recv_pair_rsp_pdu
                0x0011adec      0x118 C:/Users/fg7fww/_Install/App/DemoBoards/RSL10/Packages_RSL10_2.0/ONSemiconductor/RSL10/2.0.0//lib/ble_core/release\libblelib.a(smpc_util.o)
 .text.smpc_recv_sec_req_pdu
                0x0011af04       0x7c C:/Users/fg7fww/_Install/App/DemoBoards/RSL10/Packages_RSL10_2.0/ONSemiconductor/RSL10/2.0.0//lib/ble_core/release\libblelib.a(smpc_util.o)
 .text.smpc_recv_sign_info_pdu
                0x0011af80       0x34 C:/Users/fg7fww/_Install/App/DemoBoards/RSL10/Packages_RSL10_2.0/ONSemiconductor/RSL10/2.0.0//lib/ble_core/release\libblelib.a(smpc_util.o)
 .text.smpc_recv_pair_req_pdu
                0x0011afb4       0xac C:/Users/fg7fww/_Install/App/DemoBoards/RSL10/Packages_RSL10_2.0/ONSemiconductor/RSL10/2.0.0//lib/ble_core/release\libblelib.a(smpc_util.o)
 .text.smpc_check_param
                0x0011b060       0x6c C:/Users/fg7fww/_Install/App/DemoBoards/RSL10/Packages_RSL10_2.0/ONSemiconductor/RSL10/2.0.0//lib/ble_core/release\libblelib.a(smpc_util.o)
                0x0011b060                smpc_check_param
 .text.hci_le_rd_adv_chnl_tx_pw_cmd_cmp_evt_handler
                0x0011b0cc       0x46 C:/Users/fg7fww/_Install/App/DemoBoards/RSL10/Packages_RSL10_2.0/ONSemiconductor/RSL10/2.0.0//lib/ble_core/release\libblelib.a(gapm_hci.o)
 *fill*         0x0011b112        0x2 
 .text.hci_le_rd_local_p256_public_key_cmp_evt_handler
                0x0011b114       0x48 C:/Users/fg7fww/_Install/App/DemoBoards/RSL10/Packages_RSL10_2.0/ONSemiconductor/RSL10/2.0.0//lib/ble_core/release\libblelib.a(gapm_hci.o)
 .text.hci_le_enh_con_cmp_evt_handler
                0x0011b15c       0x1c C:/Users/fg7fww/_Install/App/DemoBoards/RSL10/Packages_RSL10_2.0/ONSemiconductor/RSL10/2.0.0//lib/ble_core/release\libblelib.a(gapm_hci.o)
 .text.hci_basic_cmd_cmp_evt_connect_handler
                0x0011b178       0x4c C:/Users/fg7fww/_Install/App/DemoBoards/RSL10/Packages_RSL10_2.0/ONSemiconductor/RSL10/2.0.0//lib/ble_core/release\libblelib.a(gapm_hci.o)
 .text.hci_basic_cmd_cmp_evt_scan_handler
                0x0011b1c4       0x58 C:/Users/fg7fww/_Install/App/DemoBoards/RSL10/Packages_RSL10_2.0/ONSemiconductor/RSL10/2.0.0//lib/ble_core/release\libblelib.a(gapm_hci.o)
 .text.hci_dtm_cmp_evt_handler
                0x0011b21c       0x10 C:/Users/fg7fww/_Install/App/DemoBoards/RSL10/Packages_RSL10_2.0/ONSemiconductor/RSL10/2.0.0//lib/ble_core/release\libblelib.a(gapm_hci.o)
 .text.hci_basic_cmd_cmp_evt_rl_handler
                0x0011b22c       0xb8 C:/Users/fg7fww/_Install/App/DemoBoards/RSL10/Packages_RSL10_2.0/ONSemiconductor/RSL10/2.0.0//lib/ble_core/release\libblelib.a(gapm_hci.o)
 .text.hci_basic_cmd_cmp_evt_adv_handler
                0x0011b2e4       0xc4 C:/Users/fg7fww/_Install/App/DemoBoards/RSL10/Packages_RSL10_2.0/ONSemiconductor/RSL10/2.0.0//lib/ble_core/release\libblelib.a(gapm_hci.o)
 .text.hci_basic_cmd_cmp_evt_cfg_handler
                0x0011b3a8       0x8c C:/Users/fg7fww/_Install/App/DemoBoards/RSL10/Packages_RSL10_2.0/ONSemiconductor/RSL10/2.0.0//lib/ble_core/release\libblelib.a(gapm_hci.o)
 .text.hci_no_operation_cmd_cmp_evt_handler
                0x0011b434       0x12 C:/Users/fg7fww/_Install/App/DemoBoards/RSL10/Packages_RSL10_2.0/ONSemiconductor/RSL10/2.0.0//lib/ble_core/release\libblelib.a(gapm_hci.o)
 .text.hci_rd_buff_size_cmd_cmp_evt_handler
                0x0011b446       0x22 C:/Users/fg7fww/_Install/App/DemoBoards/RSL10/Packages_RSL10_2.0/ONSemiconductor/RSL10/2.0.0//lib/ble_core/release\libblelib.a(gapm_hci.o)
 .text.hci_le_rd_buff_size_cmd_cmp_evt_handler
                0x0011b468       0x22 C:/Users/fg7fww/_Install/App/DemoBoards/RSL10/Packages_RSL10_2.0/ONSemiconductor/RSL10/2.0.0//lib/ble_core/release\libblelib.a(gapm_hci.o)
 .text.hci_le_generate_dhkey_cmp_evt_handler
                0x0011b48a       0x5a C:/Users/fg7fww/_Install/App/DemoBoards/RSL10/Packages_RSL10_2.0/ONSemiconductor/RSL10/2.0.0//lib/ble_core/release\libblelib.a(gapm_hci.o)
 .text.hci_le_rd_ral_addr_cmd_cmp_evt_handler
                0x0011b4e4       0x68 C:/Users/fg7fww/_Install/App/DemoBoards/RSL10/Packages_RSL10_2.0/ONSemiconductor/RSL10/2.0.0//lib/ble_core/release\libblelib.a(gapm_hci.o)
 .text.hci_le_rd_wlst_size_cmd_cmp_evt_handler
                0x0011b54c       0x50 C:/Users/fg7fww/_Install/App/DemoBoards/RSL10/Packages_RSL10_2.0/ONSemiconductor/RSL10/2.0.0//lib/ble_core/release\libblelib.a(gapm_hci.o)
 .text.hci_le_rd_max_data_len_cmd_cmp_evt_handler
                0x0011b59c       0x44 C:/Users/fg7fww/_Install/App/DemoBoards/RSL10/Packages_RSL10_2.0/ONSemiconductor/RSL10/2.0.0//lib/ble_core/release\libblelib.a(gapm_hci.o)
 .text.hci_le_rd_suggted_dft_data_len_cmd_cmp_evt_handler
                0x0011b5e0       0x3c C:/Users/fg7fww/_Install/App/DemoBoards/RSL10/Packages_RSL10_2.0/ONSemiconductor/RSL10/2.0.0//lib/ble_core/release\libblelib.a(gapm_hci.o)
 .text.hci_rd_local_ver_info_cmd_cmp_evt_handler
                0x0011b61c       0x6a C:/Users/fg7fww/_Install/App/DemoBoards/RSL10/Packages_RSL10_2.0/ONSemiconductor/RSL10/2.0.0//lib/ble_core/release\libblelib.a(gapm_hci.o)
 .text.hci_le_con_cmp_evt_handler
                0x0011b686       0x66 C:/Users/fg7fww/_Install/App/DemoBoards/RSL10/Packages_RSL10_2.0/ONSemiconductor/RSL10/2.0.0//lib/ble_core/release\libblelib.a(gapm_hci.o)
 .text.hci_le_dir_adv_report_evt_handler
                0x0011b6ec       0x90 C:/Users/fg7fww/_Install/App/DemoBoards/RSL10/Packages_RSL10_2.0/ONSemiconductor/RSL10/2.0.0//lib/ble_core/release\libblelib.a(gapm_hci.o)
 .text.hci_le_adv_report_evt_handler
                0x0011b77c       0xdc C:/Users/fg7fww/_Install/App/DemoBoards/RSL10/Packages_RSL10_2.0/ONSemiconductor/RSL10/2.0.0//lib/ble_core/release\libblelib.a(gapm_hci.o)
 .text.hci_basic_cmd_cmp_evt_addr_set_handler
                0x0011b858       0x80 C:/Users/fg7fww/_Install/App/DemoBoards/RSL10/Packages_RSL10_2.0/ONSemiconductor/RSL10/2.0.0//lib/ble_core/release\libblelib.a(gapm_hci.o)
 .text.hci_basic_cmd_cmp_evt_wl_handler
                0x0011b8d8       0x78 C:/Users/fg7fww/_Install/App/DemoBoards/RSL10/Packages_RSL10_2.0/ONSemiconductor/RSL10/2.0.0//lib/ble_core/release\libblelib.a(gapm_hci.o)
 .text.hci_le_rand_cmd_cmp_evt_handler
                0x0011b950       0xc8 C:/Users/fg7fww/_Install/App/DemoBoards/RSL10/Packages_RSL10_2.0/ONSemiconductor/RSL10/2.0.0//lib/ble_core/release\libblelib.a(gapm_hci.o)
 .text.hci_le_enc_cmd_cmp_evt_handler
                0x0011ba18      0x138 C:/Users/fg7fww/_Install/App/DemoBoards/RSL10/Packages_RSL10_2.0/ONSemiconductor/RSL10/2.0.0//lib/ble_core/release\libblelib.a(gapm_hci.o)
 .text.hci_rd_bd_addr_cmd_cmp_evt_handler
                0x0011bb50       0x40 C:/Users/fg7fww/_Install/App/DemoBoards/RSL10/Packages_RSL10_2.0/ONSemiconductor/RSL10/2.0.0//lib/ble_core/release\libblelib.a(gapm_hci.o)
 .text.hci_le_rd_ral_size_cmd_cmp_evt_handler
                0x0011bb90       0x50 C:/Users/fg7fww/_Install/App/DemoBoards/RSL10/Packages_RSL10_2.0/ONSemiconductor/RSL10/2.0.0//lib/ble_core/release\libblelib.a(gapm_hci.o)
 .text.gapm_hci_handler
                0x0011bbe0       0x64 C:/Users/fg7fww/_Install/App/DemoBoards/RSL10/Packages_RSL10_2.0/ONSemiconductor/RSL10/2.0.0//lib/ble_core/release\libblelib.a(gapm_hci.o)
                0x0011bbe0                gapm_hci_handler
 .text.hci_enc_key_refr_evt_handler
                0x0011bc44       0x22 C:/Users/fg7fww/_Install/App/DemoBoards/RSL10/Packages_RSL10_2.0/ONSemiconductor/RSL10/2.0.0//lib/ble_core/release\libblelib.a(gapc_hci.o)
 .text.hci_enc_chg_evt_handler
                0x0011bc66       0x22 C:/Users/fg7fww/_Install/App/DemoBoards/RSL10/Packages_RSL10_2.0/ONSemiconductor/RSL10/2.0.0//lib/ble_core/release\libblelib.a(gapc_hci.o)
 .text.hci_rd_rem_ver_info_cmp_evt_handler
                0x0011bc88       0x8c C:/Users/fg7fww/_Install/App/DemoBoards/RSL10/Packages_RSL10_2.0/ONSemiconductor/RSL10/2.0.0//lib/ble_core/release\libblelib.a(gapc_hci.o)
 .text.hci_le_phy_update_cmp_evt_handler
                0x0011bd14       0x58 C:/Users/fg7fww/_Install/App/DemoBoards/RSL10/Packages_RSL10_2.0/ONSemiconductor/RSL10/2.0.0//lib/ble_core/release\libblelib.a(gapc_hci.o)
 .text.hci_le_start_enc_stat_evt_handler
                0x0011bd6c       0x24 C:/Users/fg7fww/_Install/App/DemoBoards/RSL10/Packages_RSL10_2.0/ONSemiconductor/RSL10/2.0.0//lib/ble_core/release\libblelib.a(gapc_hci.o)
 .text.hci_le_rd_phy_cmd_cmp_evt_handler
                0x0011bd90       0x4c C:/Users/fg7fww/_Install/App/DemoBoards/RSL10/Packages_RSL10_2.0/ONSemiconductor/RSL10/2.0.0//lib/ble_core/release\libblelib.a(gapc_hci.o)
 .text.hci_le_set_data_len_cmd_cmp_evt_handler
                0x0011bddc       0x28 C:/Users/fg7fww/_Install/App/DemoBoards/RSL10/Packages_RSL10_2.0/ONSemiconductor/RSL10/2.0.0//lib/ble_core/release\libblelib.a(gapc_hci.o)
 .text.hci_wr_auth_payl_to_cmd_cmp_evt_handler
                0x0011be04       0x28 C:/Users/fg7fww/_Install/App/DemoBoards/RSL10/Packages_RSL10_2.0/ONSemiconductor/RSL10/2.0.0//lib/ble_core/release\libblelib.a(gapc_hci.o)
 .text.hci_rd_auth_payl_to_cmd_cmp_evt_handler
                0x0011be2c       0x48 C:/Users/fg7fww/_Install/App/DemoBoards/RSL10/Packages_RSL10_2.0/ONSemiconductor/RSL10/2.0.0//lib/ble_core/release\libblelib.a(gapc_hci.o)
 .text.hci_rd_rssi_cmd_cmp_evt_handler
                0x0011be74       0x5e C:/Users/fg7fww/_Install/App/DemoBoards/RSL10/Packages_RSL10_2.0/ONSemiconductor/RSL10/2.0.0//lib/ble_core/release\libblelib.a(gapc_hci.o)
 *fill*         0x0011bed2        0x2 
 .text.hci_disc_cmp_evt_handler
                0x0011bed4       0x58 C:/Users/fg7fww/_Install/App/DemoBoards/RSL10/Packages_RSL10_2.0/ONSemiconductor/RSL10/2.0.0//lib/ble_core/release\libblelib.a(gapc_hci.o)
 .text.hci_le_rd_rem_used_feats_cmp_evt_handler
                0x0011bf2c       0xb4 C:/Users/fg7fww/_Install/App/DemoBoards/RSL10/Packages_RSL10_2.0/ONSemiconductor/RSL10/2.0.0//lib/ble_core/release\libblelib.a(gapc_hci.o)
 .text.hci_rd_chnl_map_cmd_cmp_evt_handler
                0x0011bfe0       0x66 C:/Users/fg7fww/_Install/App/DemoBoards/RSL10/Packages_RSL10_2.0/ONSemiconductor/RSL10/2.0.0//lib/ble_core/release\libblelib.a(gapc_hci.o)
 *fill*         0x0011c046        0x2 
 .text.hci_le_ltk_request_evt_handler
                0x0011c048       0x7c C:/Users/fg7fww/_Install/App/DemoBoards/RSL10/Packages_RSL10_2.0/ONSemiconductor/RSL10/2.0.0//lib/ble_core/release\libblelib.a(gapc_hci.o)
 .text.hci_le_con_update_cmp_evt_handler
                0x0011c0c4       0x90 C:/Users/fg7fww/_Install/App/DemoBoards/RSL10/Packages_RSL10_2.0/ONSemiconductor/RSL10/2.0.0//lib/ble_core/release\libblelib.a(gapc_hci.o)
 .text.hci_cmd_stat_event_handler
                0x0011c154       0xf4 C:/Users/fg7fww/_Install/App/DemoBoards/RSL10/Packages_RSL10_2.0/ONSemiconductor/RSL10/2.0.0//lib/ble_core/release\libblelib.a(gapc_hci.o)
 .text.hci_auth_payl_to_exp_evt_handler
                0x0011c248       0x1e C:/Users/fg7fww/_Install/App/DemoBoards/RSL10/Packages_RSL10_2.0/ONSemiconductor/RSL10/2.0.0//lib/ble_core/release\libblelib.a(gapc_hci.o)
 .text.hci_le_data_len_chg_evt_handler
                0x0011c266       0x36 C:/Users/fg7fww/_Install/App/DemoBoards/RSL10/Packages_RSL10_2.0/ONSemiconductor/RSL10/2.0.0//lib/ble_core/release\libblelib.a(gapc_hci.o)
 .text.hci_le_rem_con_param_req_evt_handler
                0x0011c29c       0x54 C:/Users/fg7fww/_Install/App/DemoBoards/RSL10/Packages_RSL10_2.0/ONSemiconductor/RSL10/2.0.0//lib/ble_core/release\libblelib.a(gapc_hci.o)
 .text.gapc_hci_handler
                0x0011c2f0       0x68 C:/Users/fg7fww/_Install/App/DemoBoards/RSL10/Packages_RSL10_2.0/ONSemiconductor/RSL10/2.0.0//lib/ble_core/release\libblelib.a(gapc_hci.o)
                0x0011c2f0                gapc_hci_handler
 .text.l2c_code_reject_handler
                0x0011c358       0x44 C:/Users/fg7fww/_Install/App/DemoBoards/RSL10/Packages_RSL10_2.0/ONSemiconductor/RSL10/2.0.0//lib/ble_core/release\libblelib.a(gapc_sig.o)
 .text.l2c_code_conn_param_upd_resp_handler
                0x0011c39c       0x44 C:/Users/fg7fww/_Install/App/DemoBoards/RSL10/Packages_RSL10_2.0/ONSemiconductor/RSL10/2.0.0//lib/ble_core/release\libblelib.a(gapc_sig.o)
 .text.gapc_sig_send_param_resp
                0x0011c3e0       0x26 C:/Users/fg7fww/_Install/App/DemoBoards/RSL10/Packages_RSL10_2.0/ONSemiconductor/RSL10/2.0.0//lib/ble_core/release\libblelib.a(gapc_sig.o)
                0x0011c3e0                gapc_sig_send_param_resp
 *fill*         0x0011c406        0x2 
 .text.l2c_code_conn_param_upd_req_handler
                0x0011c408       0x68 C:/Users/fg7fww/_Install/App/DemoBoards/RSL10/Packages_RSL10_2.0/ONSemiconductor/RSL10/2.0.0//lib/ble_core/release\libblelib.a(gapc_sig.o)
 .text.gapc_sig_pdu_recv_handler
                0x0011c470       0x2c C:/Users/fg7fww/_Install/App/DemoBoards/RSL10/Packages_RSL10_2.0/ONSemiconductor/RSL10/2.0.0//lib/ble_core/release\libblelib.a(gapc_sig.o)
                0x0011c470                gapc_sig_pdu_recv_handler
 .text.ke_init  0x0011c49c       0x40 C:/Users/fg7fww/_Install/App/DemoBoards/RSL10/Packages_RSL10_2.0/ONSemiconductor/RSL10/2.0.0//lib/ble_core/release\libkelib.a(ke.o)
                0x0011c49c                ke_init
 .text.ke_flush
                0x0011c4dc       0x48 C:/Users/fg7fww/_Install/App/DemoBoards/RSL10/Packages_RSL10_2.0/ONSemiconductor/RSL10/2.0.0//lib/ble_core/release\libkelib.a(ke.o)
                0x0011c4dc                ke_flush
 .text.ke_event_init
                0x0011c524       0x10 C:/Users/fg7fww/_Install/App/DemoBoards/RSL10/Packages_RSL10_2.0/ONSemiconductor/RSL10/2.0.0//lib/ble_core/release\libkelib.a(ke_event.o)
                0x0011c524                ke_event_init
 .text.ke_event_callback_set
                0x0011c534       0x18 C:/Users/fg7fww/_Install/App/DemoBoards/RSL10/Packages_RSL10_2.0/ONSemiconductor/RSL10/2.0.0//lib/ble_core/release\libkelib.a(ke_event.o)
                0x0011c534                ke_event_callback_set
 .text.ke_event_set
                0x0011c54c       0x1c C:/Users/fg7fww/_Install/App/DemoBoards/RSL10/Packages_RSL10_2.0/ONSemiconductor/RSL10/2.0.0//lib/ble_core/release\libkelib.a(ke_event.o)
                0x0011c54c                ke_event_set
 .text.ke_event_clear
                0x0011c568       0x20 C:/Users/fg7fww/_Install/App/DemoBoards/RSL10/Packages_RSL10_2.0/ONSemiconductor/RSL10/2.0.0//lib/ble_core/release\libkelib.a(ke_event.o)
                0x0011c568                ke_event_clear
 .text.ke_event_flush
                0x0011c588        0xc C:/Users/fg7fww/_Install/App/DemoBoards/RSL10/Packages_RSL10_2.0/ONSemiconductor/RSL10/2.0.0//lib/ble_core/release\libkelib.a(ke_event.o)
                0x0011c588                ke_event_flush
 .text.ke_event_schedule
                0x0011c594       0x28 C:/Users/fg7fww/_Install/App/DemoBoards/RSL10/Packages_RSL10_2.0/ONSemiconductor/RSL10/2.0.0//lib/ble_core/release\libkelib.a(ke_event.o)
                0x0011c594                ke_event_schedule
 .text.ke_mem_init
                0x0011c5bc       0x38 C:/Users/fg7fww/_Install/App/DemoBoards/RSL10/Packages_RSL10_2.0/ONSemiconductor/RSL10/2.0.0//lib/ble_core/release\libkelib.a(ke_mem.o)
                0x0011c5bc                ke_mem_init
 .text.ke_check_malloc
                0x0011c5f4       0x64 C:/Users/fg7fww/_Install/App/DemoBoards/RSL10/Packages_RSL10_2.0/ONSemiconductor/RSL10/2.0.0//lib/ble_core/release\libkelib.a(ke_mem.o)
                0x0011c5f4                ke_check_malloc
 .text.ke_malloc
                0x0011c658       0x9c C:/Users/fg7fww/_Install/App/DemoBoards/RSL10/Packages_RSL10_2.0/ONSemiconductor/RSL10/2.0.0//lib/ble_core/release\libkelib.a(ke_mem.o)
                0x0011c658                ke_malloc
 .text.ke_free  0x0011c6f4       0xc0 C:/Users/fg7fww/_Install/App/DemoBoards/RSL10/Packages_RSL10_2.0/ONSemiconductor/RSL10/2.0.0//lib/ble_core/release\libkelib.a(ke_mem.o)
                0x0011c6f4                ke_free
 .text.ke_is_free
                0x0011c7b4       0x10 C:/Users/fg7fww/_Install/App/DemoBoards/RSL10/Packages_RSL10_2.0/ONSemiconductor/RSL10/2.0.0//lib/ble_core/release\libkelib.a(ke_mem.o)
                0x0011c7b4                ke_is_free
 .text.ke_msg_alloc
                0x0011c7c4       0x34 C:/Users/fg7fww/_Install/App/DemoBoards/RSL10/Packages_RSL10_2.0/ONSemiconductor/RSL10/2.0.0//lib/ble_core/release\libkelib.a(ke_msg.o)
                0x0011c7c4                ke_msg_alloc
 .text.ke_msg_send
                0x0011c7f8       0x20 C:/Users/fg7fww/_Install/App/DemoBoards/RSL10/Packages_RSL10_2.0/ONSemiconductor/RSL10/2.0.0//lib/ble_core/release\libkelib.a(ke_msg.o)
                0x0011c7f8                ke_msg_send
 .text.ke_msg_send_basic
                0x0011c818       0x10 C:/Users/fg7fww/_Install/App/DemoBoards/RSL10/Packages_RSL10_2.0/ONSemiconductor/RSL10/2.0.0//lib/ble_core/release\libkelib.a(ke_msg.o)
                0x0011c818                ke_msg_send_basic
 .text.ke_msg_forward
                0x0011c828        0xc C:/Users/fg7fww/_Install/App/DemoBoards/RSL10/Packages_RSL10_2.0/ONSemiconductor/RSL10/2.0.0//lib/ble_core/release\libkelib.a(ke_msg.o)
                0x0011c828                ke_msg_forward
 .text.ke_msg_free
                0x0011c834        0x4 C:/Users/fg7fww/_Install/App/DemoBoards/RSL10/Packages_RSL10_2.0/ONSemiconductor/RSL10/2.0.0//lib/ble_core/release\libkelib.a(ke_msg.o)
                0x0011c834                ke_msg_free
 .text.ke_msg_src_id_get
                0x0011c838        0x6 C:/Users/fg7fww/_Install/App/DemoBoards/RSL10/Packages_RSL10_2.0/ONSemiconductor/RSL10/2.0.0//lib/ble_core/release\libkelib.a(ke_msg.o)
                0x0011c838                ke_msg_src_id_get
 .text.ke_msg_in_queue
                0x0011c83e        0xc C:/Users/fg7fww/_Install/App/DemoBoards/RSL10/Packages_RSL10_2.0/ONSemiconductor/RSL10/2.0.0//lib/ble_core/release\libkelib.a(ke_msg.o)
                0x0011c83e                ke_msg_in_queue
 .text.cmp_dest_id
                0x0011c84a        0xa C:/Users/fg7fww/_Install/App/DemoBoards/RSL10/Packages_RSL10_2.0/ONSemiconductor/RSL10/2.0.0//lib/ble_core/release\libkelib.a(ke_task.o)
 .text.ke_handler_search
                0x0011c854       0x2e C:/Users/fg7fww/_Install/App/DemoBoards/RSL10/Packages_RSL10_2.0/ONSemiconductor/RSL10/2.0.0//lib/ble_core/release\libkelib.a(ke_task.o)
 *fill*         0x0011c882        0x2 
 .text.ke_task_schedule
                0x0011c884       0xa4 C:/Users/fg7fww/_Install/App/DemoBoards/RSL10/Packages_RSL10_2.0/ONSemiconductor/RSL10/2.0.0//lib/ble_core/release\libkelib.a(ke_task.o)
 .text.ke_task_init
                0x0011c928       0x20 C:/Users/fg7fww/_Install/App/DemoBoards/RSL10/Packages_RSL10_2.0/ONSemiconductor/RSL10/2.0.0//lib/ble_core/release\libkelib.a(ke_task.o)
                0x0011c928                ke_task_init
 .text.ke_task_create
                0x0011c948       0x24 C:/Users/fg7fww/_Install/App/DemoBoards/RSL10/Packages_RSL10_2.0/ONSemiconductor/RSL10/2.0.0//lib/ble_core/release\libkelib.a(ke_task.o)
                0x0011c948                ke_task_create
 .text.ke_state_set
                0x0011c96c       0x60 C:/Users/fg7fww/_Install/App/DemoBoards/RSL10/Packages_RSL10_2.0/ONSemiconductor/RSL10/2.0.0//lib/ble_core/release\libkelib.a(ke_task.o)
                0x0011c96c                ke_state_set
 .text.ke_state_get
                0x0011c9cc       0x28 C:/Users/fg7fww/_Install/App/DemoBoards/RSL10/Packages_RSL10_2.0/ONSemiconductor/RSL10/2.0.0//lib/ble_core/release\libkelib.a(ke_task.o)
                0x0011c9cc                ke_state_get
 .text.ke_msg_discard
                0x0011c9f4        0x4 C:/Users/fg7fww/_Install/App/DemoBoards/RSL10/Packages_RSL10_2.0/ONSemiconductor/RSL10/2.0.0//lib/ble_core/release\libkelib.a(ke_task.o)
                0x0011c9f4                ke_msg_discard
 .text.ke_task_msg_flush
                0x0011c9f8       0x40 C:/Users/fg7fww/_Install/App/DemoBoards/RSL10/Packages_RSL10_2.0/ONSemiconductor/RSL10/2.0.0//lib/ble_core/release\libkelib.a(ke_task.o)
                0x0011c9f8                ke_task_msg_flush
 .text.cmp_abs_time
                0x0011ca38       0x16 C:/Users/fg7fww/_Install/App/DemoBoards/RSL10/Packages_RSL10_2.0/ONSemiconductor/RSL10/2.0.0//lib/ble_core/release\libkelib.a(ke_timer.o)
 .text.cmp_timer_id
                0x0011ca4e       0x18 C:/Users/fg7fww/_Install/App/DemoBoards/RSL10/Packages_RSL10_2.0/ONSemiconductor/RSL10/2.0.0//lib/ble_core/release\libkelib.a(ke_timer.o)
 *fill*         0x0011ca66        0x2 
 .text.ke_timer_hw_set
                0x0011ca68       0x34 C:/Users/fg7fww/_Install/App/DemoBoards/RSL10/Packages_RSL10_2.0/ONSemiconductor/RSL10/2.0.0//lib/ble_core/release\libkelib.a(ke_timer.o)
 .text.ke_timer_schedule
                0x0011ca9c       0x80 C:/Users/fg7fww/_Install/App/DemoBoards/RSL10/Packages_RSL10_2.0/ONSemiconductor/RSL10/2.0.0//lib/ble_core/release\libkelib.a(ke_timer.o)
 .text.ke_timer_init
                0x0011cb1c        0xc C:/Users/fg7fww/_Install/App/DemoBoards/RSL10/Packages_RSL10_2.0/ONSemiconductor/RSL10/2.0.0//lib/ble_core/release\libkelib.a(ke_timer.o)
                0x0011cb1c                ke_timer_init
 .text.ke_timer_set
                0x0011cb28       0xb4 C:/Users/fg7fww/_Install/App/DemoBoards/RSL10/Packages_RSL10_2.0/ONSemiconductor/RSL10/2.0.0//lib/ble_core/release\libkelib.a(ke_timer.o)
                0x0011cb28                ke_timer_set
 .text.ke_timer_clear
                0x0011cbdc       0x70 C:/Users/fg7fww/_Install/App/DemoBoards/RSL10/Packages_RSL10_2.0/ONSemiconductor/RSL10/2.0.0//lib/ble_core/release\libkelib.a(ke_timer.o)
                0x0011cbdc                ke_timer_clear
 .text.ke_timer_active
                0x0011cc4c       0x28 C:/Users/fg7fww/_Install/App/DemoBoards/RSL10/Packages_RSL10_2.0/ONSemiconductor/RSL10/2.0.0//lib/ble_core/release\libkelib.a(ke_timer.o)
                0x0011cc4c                ke_timer_active
 .text.platform_reset
                0x0011cc74       0x30 C:/Users/fg7fww/_Install/App/DemoBoards/RSL10/Packages_RSL10_2.0/ONSemiconductor/RSL10/2.0.0//lib/ble_core/release\libkelib.a(rst_grosstime.o)
                0x0011cc74                platform_reset
 .text.ea_time_get_halfslot_rounded
                0x0011cca4       0x2c C:/Users/fg7fww/_Install/App/DemoBoards/RSL10/Packages_RSL10_2.0/ONSemiconductor/RSL10/2.0.0//lib/ble_core/release\libkelib.a(rst_grosstime.o)
                0x0011cca4                ea_time_get_halfslot_rounded
 .text.lld_evt_timer_isr
                0x0011ccd0        0x6 C:/Users/fg7fww/_Install/App/DemoBoards/RSL10/Packages_RSL10_2.0/ONSemiconductor/RSL10/2.0.0//lib/ble_core/release\libkelib.a(rst_grosstime.o)
                0x0011ccd0                lld_evt_timer_isr
 *fill*         0x0011ccd6        0x2 
 .text.grosstimer_isr
                0x0011ccd8       0x20 C:/Users/fg7fww/_Install/App/DemoBoards/RSL10/Packages_RSL10_2.0/ONSemiconductor/RSL10/2.0.0//lib/ble_core/release\libkelib.a(rst_grosstime.o)
                0x0011ccd8                grosstimer_isr
                0x0011ccd8                BLE_GROSSTGTIM_IRQHandler
 .text.Kernel_Init
                0x0011ccf8       0x5c C:/Users/fg7fww/_Install/App/DemoBoards/RSL10/Packages_RSL10_2.0/ONSemiconductor/RSL10/2.0.0//lib/ble_core/release\libkelib.a(rwip2.o)
                0x0011ccf8                Kernel_Init
 .text.Kernel_Schedule
                0x0011cd54       0x14 C:/Users/fg7fww/_Install/App/DemoBoards/RSL10/Packages_RSL10_2.0/ONSemiconductor/RSL10/2.0.0//lib/ble_core/release\libkelib.a(rwip2.o)
                0x0011cd54                Kernel_Schedule
 .text.co_list_init
                0x0011cd68        0x8 C:/Users/fg7fww/_Install/App/DemoBoards/RSL10/Packages_RSL10_2.0/ONSemiconductor/RSL10/2.0.0//lib/ble_core/release\libkelib.a(co_list.o)
                0x0011cd68                co_list_init
 .text.co_list_push_back
                0x0011cd70       0x14 C:/Users/fg7fww/_Install/App/DemoBoards/RSL10/Packages_RSL10_2.0/ONSemiconductor/RSL10/2.0.0//lib/ble_core/release\libkelib.a(co_list.o)
                0x0011cd70                co_list_push_back
 .text.co_list_push_front
                0x0011cd84        0xc C:/Users/fg7fww/_Install/App/DemoBoards/RSL10/Packages_RSL10_2.0/ONSemiconductor/RSL10/2.0.0//lib/ble_core/release\libkelib.a(co_list.o)
                0x0011cd84                co_list_push_front
 .text.co_list_pop_front
                0x0011cd90       0x10 C:/Users/fg7fww/_Install/App/DemoBoards/RSL10/Packages_RSL10_2.0/ONSemiconductor/RSL10/2.0.0//lib/ble_core/release\libkelib.a(co_list.o)
                0x0011cd90                co_list_pop_front
 .text.co_list_extract
                0x0011cda0       0x34 C:/Users/fg7fww/_Install/App/DemoBoards/RSL10/Packages_RSL10_2.0/ONSemiconductor/RSL10/2.0.0//lib/ble_core/release\libkelib.a(co_list.o)
                0x0011cda0                co_list_extract
 .text.co_list_extract_after
                0x0011cdd4       0x18 C:/Users/fg7fww/_Install/App/DemoBoards/RSL10/Packages_RSL10_2.0/ONSemiconductor/RSL10/2.0.0//lib/ble_core/release\libkelib.a(co_list.o)
                0x0011cdd4                co_list_extract_after
 .text.co_list_find
                0x0011cdec       0x12 C:/Users/fg7fww/_Install/App/DemoBoards/RSL10/Packages_RSL10_2.0/ONSemiconductor/RSL10/2.0.0//lib/ble_core/release\libkelib.a(co_list.o)
                0x0011cdec                co_list_find
 .text.co_list_merge
                0x0011cdfe       0x1a C:/Users/fg7fww/_Install/App/DemoBoards/RSL10/Packages_RSL10_2.0/ONSemiconductor/RSL10/2.0.0//lib/ble_core/release\libkelib.a(co_list.o)
                0x0011cdfe                co_list_merge
 .text.co_list_insert_before
                0x0011ce18       0x28 C:/Users/fg7fww/_Install/App/DemoBoards/RSL10/Packages_RSL10_2.0/ONSemiconductor/RSL10/2.0.0//lib/ble_core/release\libkelib.a(co_list.o)
                0x0011ce18                co_list_insert_before
 .text.co_list_insert_after
                0x0011ce40       0x22 C:/Users/fg7fww/_Install/App/DemoBoards/RSL10/Packages_RSL10_2.0/ONSemiconductor/RSL10/2.0.0//lib/ble_core/release\libkelib.a(co_list.o)
                0x0011ce40                co_list_insert_after
 .text.co_list_size
                0x0011ce62       0x10 C:/Users/fg7fww/_Install/App/DemoBoards/RSL10/Packages_RSL10_2.0/ONSemiconductor/RSL10/2.0.0//lib/ble_core/release\libkelib.a(co_list.o)
                0x0011ce62                co_list_size
 .text.co_bdaddr_compare
                0x0011ce72       0x20 C:/Users/fg7fww/_Install/App/DemoBoards/RSL10/Packages_RSL10_2.0/ONSemiconductor/RSL10/2.0.0//lib/ble_core/release\libkelib.a(co_utils.o)
                0x0011ce72                co_bdaddr_compare
 .text.ke_queue_extract
                0x0011ce92       0x3a C:/Users/fg7fww/_Install/App/DemoBoards/RSL10/Packages_RSL10_2.0/ONSemiconductor/RSL10/2.0.0//lib/ble_core/release\libkelib.a(ke_queue.o)
                0x0011ce92                ke_queue_extract
 .text.ke_queue_insert
                0x0011cecc       0x30 C:/Users/fg7fww/_Install/App/DemoBoards/RSL10/Packages_RSL10_2.0/ONSemiconductor/RSL10/2.0.0//lib/ble_core/release\libkelib.a(ke_queue.o)
                0x0011cecc                ke_queue_insert
 .text.bass_create
                0x0011cefc        0xa C:/Users/fg7fww/_Install/App/DemoBoards/RSL10/Packages_RSL10_2.0/ONSemiconductor/RSL10/2.0.0//lib/ble_profiles/release\libbass.a(bass.o)
 .text.bass_cleanup
                0x0011cf06        0xa C:/Users/fg7fww/_Install/App/DemoBoards/RSL10/Packages_RSL10_2.0/ONSemiconductor/RSL10/2.0.0//lib/ble_profiles/release\libbass.a(bass.o)
 .text.bass_destroy
                0x0011cf10       0x1c C:/Users/fg7fww/_Install/App/DemoBoards/RSL10/Packages_RSL10_2.0/ONSemiconductor/RSL10/2.0.0//lib/ble_profiles/release\libbass.a(bass.o)
 .text.bass_init
                0x0011cf2c      0x160 C:/Users/fg7fww/_Install/App/DemoBoards/RSL10/Packages_RSL10_2.0/ONSemiconductor/RSL10/2.0.0//lib/ble_profiles/release\libbass.a(bass.o)
 .text.bass_prf_itf_get
                0x0011d08c        0x8 C:/Users/fg7fww/_Install/App/DemoBoards/RSL10/Packages_RSL10_2.0/ONSemiconductor/RSL10/2.0.0//lib/ble_profiles/release\libbass.a(bass.o)
                0x0011d08c                bass_prf_itf_get
 .text.bass_get_att_handle
                0x0011d094       0x74 C:/Users/fg7fww/_Install/App/DemoBoards/RSL10/Packages_RSL10_2.0/ONSemiconductor/RSL10/2.0.0//lib/ble_profiles/release\libbass.a(bass.o)
                0x0011d094                bass_get_att_handle
 .text.bass_notify_batt_lvl
                0x0011d108       0x44 C:/Users/fg7fww/_Install/App/DemoBoards/RSL10/Packages_RSL10_2.0/ONSemiconductor/RSL10/2.0.0//lib/ble_profiles/release\libbass.a(bass.o)
 .text.bass_get_att_idx
                0x0011d14c       0x6a C:/Users/fg7fww/_Install/App/DemoBoards/RSL10/Packages_RSL10_2.0/ONSemiconductor/RSL10/2.0.0//lib/ble_profiles/release\libbass.a(bass.o)
                0x0011d14c                bass_get_att_idx
 .text.bass_exe_operation
                0x0011d1b6       0xc4 C:/Users/fg7fww/_Install/App/DemoBoards/RSL10/Packages_RSL10_2.0/ONSemiconductor/RSL10/2.0.0//lib/ble_profiles/release\libbass.a(bass.o)
                0x0011d1b6                bass_exe_operation
 .text.gattc_cmp_evt_handler
                0x0011d27a       0x10 C:/Users/fg7fww/_Install/App/DemoBoards/RSL10/Packages_RSL10_2.0/ONSemiconductor/RSL10/2.0.0//lib/ble_profiles/release\libbass.a(bass_task.o)
 .text.gattc_read_req_ind_handler
                0x0011d28a       0xb6 C:/Users/fg7fww/_Install/App/DemoBoards/RSL10/Packages_RSL10_2.0/ONSemiconductor/RSL10/2.0.0//lib/ble_profiles/release\libbass.a(bass_task.o)
 .text.gattc_att_info_req_ind_handler
                0x0011d340       0x50 C:/Users/fg7fww/_Install/App/DemoBoards/RSL10/Packages_RSL10_2.0/ONSemiconductor/RSL10/2.0.0//lib/ble_profiles/release\libbass.a(bass_task.o)
 .text.gattc_write_req_ind_handler
                0x0011d390       0xb0 C:/Users/fg7fww/_Install/App/DemoBoards/RSL10/Packages_RSL10_2.0/ONSemiconductor/RSL10/2.0.0//lib/ble_profiles/release\libbass.a(bass_task.o)
 .text.bass_batt_level_upd_req_handler
                0x0011d440       0x6c C:/Users/fg7fww/_Install/App/DemoBoards/RSL10/Packages_RSL10_2.0/ONSemiconductor/RSL10/2.0.0//lib/ble_profiles/release\libbass.a(bass_task.o)
 .text.bass_enable_req_handler
                0x0011d4ac       0x7c C:/Users/fg7fww/_Install/App/DemoBoards/RSL10/Packages_RSL10_2.0/ONSemiconductor/RSL10/2.0.0//lib/ble_profiles/release\libbass.a(bass_task.o)
 .text          0x0011d528       0x14 C:/Users/fg7fww/_Install/App/DemoBoards/RSL10/Packages_RSL10_2.0/ONSemiconductor/RSL10/2.0.0//lib/release\libcmsis.a(startup_rsl10.o)
                0x0011d528                NMI_Handler
                0x0011d52a                HardFault_Handler
                0x0011d52c                MemManage_Handler
                0x0011d52e                BusFault_Handler
                0x0011d530                UsageFault_Handler
                0x0011d532                SVC_Handler
                0x0011d534                DebugMon_Handler
                0x0011d536                PendSV_Handler
                0x0011d538                SysTick_Handler
                0x0011d53a                UART_ERROR_IRQHandler
                0x0011d53a                DSP7_IRQHandler
                0x0011d53a                BLE_COEX_RX_TX_IRQHandler
                0x0011d53a                DMA2_IRQHandler
                0x0011d53a                DSP2_IRQHandler
                0x0011d53a                MEMORY_ERROR_IRQHandler
                0x0011d53a                TIMER3_IRQHandler
                0x0011d53a                WATCHDOG_IRQHandler
                0x0011d53a                DIO1_IRQHandler
                0x0011d53a                DIO3_IRQHandler
                0x0011d53a                DSP3_IRQHandler
                0x0011d53a                FLASH_COPY_IRQHandler
                0x0011d53a                RF_TXFIFO_IRQHandler
                0x0011d53a                RTC_ALARM_IRQHandler
                0x0011d53a                SPI0_ERROR_IRQHandler
                0x0011d53a                BLE_COEX_IN_PROCESS_IRQHandler
                0x0011d53a                DMA5_IRQHandler
                0x0011d53a                ASRC_IN_IRQHandler
                0x0011d53a                SPI1_ERROR_IRQHandler
                0x0011d53a                DMIC_OD_ERROR_IRQHandler
                0x0011d53a                TIMER1_IRQHandler
                0x0011d53a                PCM_TX_IRQHandler
                0x0011d53a                DSP0_IRQHandler
                0x0011d53a                SPI0_TX_IRQHandler
                0x0011d53a                UART_TX_IRQHandler
                0x0011d53a                Default_Handler
                0x0011d53a                DMIC_OUT_OD_IN_IRQHandler
                0x0011d53a                ADC_BATMON_IRQHandler
                0x0011d53a                DMA7_IRQHandler
                0x0011d53a                PCM_RX_IRQHandler
                0x0011d53a                RF_TX_IRQHandler
                0x0011d53a                SPI0_RX_IRQHandler
                0x0011d53a                ASRC_ERROR_IRQHandler
                0x0011d53a                RF_RXSTOP_IRQHandler
                0x0011d53a                DSP1_IRQHandler
                0x0011d53a                AUDIOSINK_PHASE_IRQHandler
                0x0011d53a                WAKEUP_IRQHandler
                0x0011d53a                RF_SYNC_IRQHandler
                0x0011d53a                CLKDET_IRQHandler
                0x0011d53a                DSP6_IRQHandler
                0x0011d53a                I2C_IRQHandler
                0x0011d53a                TIMER2_IRQHandler
                0x0011d53a                AUDIOSINK_PERIOD_IRQHandler
                0x0011d53a                TIMER0_IRQHandler
                0x0011d53a                DMA3_IRQHandler
                0x0011d53a                RTC_CLOCK_IRQHandler
                0x0011d53a                DIO2_IRQHandler
                0x0011d53a                DMA0_IRQHandler
                0x0011d53a                ASRC_OUT_IRQHandler
                0x0011d53a                PCM_ERROR_IRQHandler
                0x0011d53a                DSP5_IRQHandler
                0x0011d53a                DMA4_IRQHandler
                0x0011d53a                UART_RX_IRQHandler
                0x0011d53a                FLASH_ECC_IRQHandler
                0x0011d53a                SPI1_TX_IRQHandler
                0x0011d53a                RF_IRQ_RECEIVED_IRQHandler
                0x0011d53a                DSP4_IRQHandler
                0x0011d53a                DMA6_IRQHandler
                0x0011d53a                RF_RXFIFO_IRQHandler
                0x0011d53a                DMA1_IRQHandler
 .text._start   0x0011d53c      0x160 C:/Users/fg7fww/_Install/App/DemoBoards/RSL10/Packages_RSL10_2.0/ONSemiconductor/RSL10/2.0.0//lib/release\libcmsis.a(start.o)
                0x0011d53c                _start
 .text.System_GetTargetForTrim
                0x0011d69c       0x32 C:/Users/fg7fww/_Install/App/DemoBoards/RSL10/Packages_RSL10_2.0/ONSemiconductor/RSL10/2.0.0//lib/release\libcmsis.a(system_rsl10.o)
                0x0011d69c                System_GetTargetForTrim
 *fill*         0x0011d6ce        0x2 
 .text.SystemInit
                0x0011d6d0       0x24 C:/Users/fg7fww/_Install/App/DemoBoards/RSL10/Packages_RSL10_2.0/ONSemiconductor/RSL10/2.0.0//lib/release\libcmsis.a(system_rsl10.o)
                0x0011d6d0                SystemInit
 .text.SystemCoreClockUpdate
                0x0011d6f4      0x168 C:/Users/fg7fww/_Install/App/DemoBoards/RSL10/Packages_RSL10_2.0/ONSemiconductor/RSL10/2.0.0//lib/release\libcmsis.a(system_rsl10.o)
                0x0011d6f4                SystemCoreClockUpdate
 .text._sbrk    0x0011d85c       0x54 C:/Users/fg7fww/_Install/App/DemoBoards/RSL10/Packages_RSL10_2.0/ONSemiconductor/RSL10/2.0.0//lib/release\libcmsis.a(sbrk.o)
                0x0011d85c                _sbrk
 .text.Device_Param_Read
                0x0011d8b0      0x284 C:/Users/fg7fww/_Install/App/DemoBoards/RSL10/Packages_RSL10_2.0/ONSemiconductor/RSL10/2.0.0//lib/release\libsyslib.a(rsl10_protocol.o)
                0x0011d8b0                Device_Param_Read
 .text.Sys_DMA_ChannelConfig
                0x0011db34       0x2e C:/Users/fg7fww/_Install/App/DemoBoards/RSL10/Packages_RSL10_2.0/ONSemiconductor/RSL10/2.0.0//lib/release\libsyslib.a(rsl10_sys_dma.o)
                0x0011db34                Sys_DMA_ChannelConfig
 .text.Sys_GetTrim
                0x0011db62        0x6 C:/Users/fg7fww/_Install/App/DemoBoards/RSL10/Packages_RSL10_2.0/ONSemiconductor/RSL10/2.0.0//lib/release\libsyslib.a(rsl10_sys_rffe.o)
 .text.Sys_RFFE_Interpolate
                0x0011db68       0x98 C:/Users/fg7fww/_Install/App/DemoBoards/RSL10/Packages_RSL10_2.0/ONSemiconductor/RSL10/2.0.0//lib/release\libsyslib.a(rsl10_sys_rffe.o)
                0x0011db68                Sys_RFFE_Interpolate
 .text.Sys_RFFE_SetTXPower
                0x0011dc00      0x2c0 C:/Users/fg7fww/_Install/App/DemoBoards/RSL10/Packages_RSL10_2.0/ONSemiconductor/RSL10/2.0.0//lib/release\libsyslib.a(rsl10_sys_rffe.o)
                0x0011dc00                Sys_RFFE_SetTXPower
 .text.Sys_GetTrim
                0x0011dec0        0x6 C:/Users/fg7fww/_Install/App/DemoBoards/RSL10/Packages_RSL10_2.0/ONSemiconductor/RSL10/2.0.0//lib/release\libsyslib.a(rsl10_sys_power.o)
 *fill*         0x0011dec6        0x2 
 .text.Sys_Power_VDDRFCalibratedConfig
                0x0011dec8       0x44 C:/Users/fg7fww/_Install/App/DemoBoards/RSL10/Packages_RSL10_2.0/ONSemiconductor/RSL10/2.0.0//lib/release\libsyslib.a(rsl10_sys_power.o)
                0x0011dec8                Sys_Power_VDDRFCalibratedConfig
 .text.htpt_prf_itf_get
                0x0011df0c        0x4 C:/Users/fg7fww/_Install/App/DemoBoards/RSL10/Packages_RSL10_2.0/ONSemiconductor/RSL10/2.0.0//lib/ble_core/release\libweak_prf.a(weakprf.o)
                0x0011df0c                htpt_prf_itf_get
 .text.htpc_prf_itf_get
                0x0011df10        0x4 C:/Users/fg7fww/_Install/App/DemoBoards/RSL10/Packages_RSL10_2.0/ONSemiconductor/RSL10/2.0.0//lib/ble_core/release\libweak_prf.a(weakprf.o)
                0x0011df10                htpc_prf_itf_get
 .text.diss_prf_itf_get
                0x0011df14        0x4 C:/Users/fg7fww/_Install/App/DemoBoards/RSL10/Packages_RSL10_2.0/ONSemiconductor/RSL10/2.0.0//lib/ble_core/release\libweak_prf.a(weakprf.o)
                0x0011df14                diss_prf_itf_get
 .text.disc_prf_itf_get
                0x0011df18        0x4 C:/Users/fg7fww/_Install/App/DemoBoards/RSL10/Packages_RSL10_2.0/ONSemiconductor/RSL10/2.0.0//lib/ble_core/release\libweak_prf.a(weakprf.o)
                0x0011df18                disc_prf_itf_get
 .text.blps_prf_itf_get
                0x0011df1c        0x4 C:/Users/fg7fww/_Install/App/DemoBoards/RSL10/Packages_RSL10_2.0/ONSemiconductor/RSL10/2.0.0//lib/ble_core/release\libweak_prf.a(weakprf.o)
                0x0011df1c                blps_prf_itf_get
 .text.blpc_prf_itf_get
                0x0011df20        0x4 C:/Users/fg7fww/_Install/App/DemoBoards/RSL10/Packages_RSL10_2.0/ONSemiconductor/RSL10/2.0.0//lib/ble_core/release\libweak_prf.a(weakprf.o)
                0x0011df20                blpc_prf_itf_get
 .text.tips_prf_itf_get
                0x0011df24        0x4 C:/Users/fg7fww/_Install/App/DemoBoards/RSL10/Packages_RSL10_2.0/ONSemiconductor/RSL10/2.0.0//lib/ble_core/release\libweak_prf.a(weakprf.o)
                0x0011df24                tips_prf_itf_get
 .text.tipc_prf_itf_get
                0x0011df28        0x4 C:/Users/fg7fww/_Install/App/DemoBoards/RSL10/Packages_RSL10_2.0/ONSemiconductor/RSL10/2.0.0//lib/ble_core/release\libweak_prf.a(weakprf.o)
                0x0011df28                tipc_prf_itf_get
 .text.hrps_prf_itf_get
                0x0011df2c        0x4 C:/Users/fg7fww/_Install/App/DemoBoards/RSL10/Packages_RSL10_2.0/ONSemiconductor/RSL10/2.0.0//lib/ble_core/release\libweak_prf.a(weakprf.o)
                0x0011df2c                hrps_prf_itf_get
 .text.hrpc_prf_itf_get
                0x0011df30        0x4 C:/Users/fg7fww/_Install/App/DemoBoards/RSL10/Packages_RSL10_2.0/ONSemiconductor/RSL10/2.0.0//lib/ble_core/release\libweak_prf.a(weakprf.o)
                0x0011df30                hrpc_prf_itf_get
 .text.findl_prf_itf_get
                0x0011df34        0x4 C:/Users/fg7fww/_Install/App/DemoBoards/RSL10/Packages_RSL10_2.0/ONSemiconductor/RSL10/2.0.0//lib/ble_core/release\libweak_prf.a(weakprf.o)
                0x0011df34                findl_prf_itf_get
 .text.findt_prf_itf_get
                0x0011df38        0x4 C:/Users/fg7fww/_Install/App/DemoBoards/RSL10/Packages_RSL10_2.0/ONSemiconductor/RSL10/2.0.0//lib/ble_core/release\libweak_prf.a(weakprf.o)
                0x0011df38                findt_prf_itf_get
 .text.scppc_prf_itf_get
                0x0011df3c        0x4 C:/Users/fg7fww/_Install/App/DemoBoards/RSL10/Packages_RSL10_2.0/ONSemiconductor/RSL10/2.0.0//lib/ble_core/release\libweak_prf.a(weakprf.o)
                0x0011df3c                scppc_prf_itf_get
 .text.scpps_prf_itf_get
                0x0011df40        0x4 C:/Users/fg7fww/_Install/App/DemoBoards/RSL10/Packages_RSL10_2.0/ONSemiconductor/RSL10/2.0.0//lib/ble_core/release\libweak_prf.a(weakprf.o)
                0x0011df40                scpps_prf_itf_get
 .text.basc_prf_itf_get
                0x0011df44        0x4 C:/Users/fg7fww/_Install/App/DemoBoards/RSL10/Packages_RSL10_2.0/ONSemiconductor/RSL10/2.0.0//lib/ble_core/release\libweak_prf.a(weakprf.o)
                0x0011df44                basc_prf_itf_get
 .text.hogpd_prf_itf_get
                0x0011df48        0x4 C:/Users/fg7fww/_Install/App/DemoBoards/RSL10/Packages_RSL10_2.0/ONSemiconductor/RSL10/2.0.0//lib/ble_core/release\libweak_prf.a(weakprf.o)
                0x0011df48                hogpd_prf_itf_get
 .text.hogpbh_prf_itf_get
                0x0011df4c        0x4 C:/Users/fg7fww/_Install/App/DemoBoards/RSL10/Packages_RSL10_2.0/ONSemiconductor/RSL10/2.0.0//lib/ble_core/release\libweak_prf.a(weakprf.o)
                0x0011df4c                hogpbh_prf_itf_get
 .text.hogprh_prf_itf_get
                0x0011df50        0x4 C:/Users/fg7fww/_Install/App/DemoBoards/RSL10/Packages_RSL10_2.0/ONSemiconductor/RSL10/2.0.0//lib/ble_core/release\libweak_prf.a(weakprf.o)
                0x0011df50                hogprh_prf_itf_get
 .text.glpc_prf_itf_get
                0x0011df54        0x4 C:/Users/fg7fww/_Install/App/DemoBoards/RSL10/Packages_RSL10_2.0/ONSemiconductor/RSL10/2.0.0//lib/ble_core/release\libweak_prf.a(weakprf.o)
                0x0011df54                glpc_prf_itf_get
 .text.glps_prf_itf_get
                0x0011df58        0x4 C:/Users/fg7fww/_Install/App/DemoBoards/RSL10/Packages_RSL10_2.0/ONSemiconductor/RSL10/2.0.0//lib/ble_core/release\libweak_prf.a(weakprf.o)
                0x0011df58                glps_prf_itf_get
 .text.rscpc_prf_itf_get
                0x0011df5c        0x4 C:/Users/fg7fww/_Install/App/DemoBoards/RSL10/Packages_RSL10_2.0/ONSemiconductor/RSL10/2.0.0//lib/ble_core/release\libweak_prf.a(weakprf.o)
                0x0011df5c                rscpc_prf_itf_get
 .text.rscps_prf_itf_get
                0x0011df60        0x4 C:/Users/fg7fww/_Install/App/DemoBoards/RSL10/Packages_RSL10_2.0/ONSemiconductor/RSL10/2.0.0//lib/ble_core/release\libweak_prf.a(weakprf.o)
                0x0011df60                rscps_prf_itf_get
 .text.cscpc_prf_itf_get
                0x0011df64        0x4 C:/Users/fg7fww/_Install/App/DemoBoards/RSL10/Packages_RSL10_2.0/ONSemiconductor/RSL10/2.0.0//lib/ble_core/release\libweak_prf.a(weakprf.o)
                0x0011df64                cscpc_prf_itf_get
 .text.cscps_prf_itf_get
                0x0011df68        0x4 C:/Users/fg7fww/_Install/App/DemoBoards/RSL10/Packages_RSL10_2.0/ONSemiconductor/RSL10/2.0.0//lib/ble_core/release\libweak_prf.a(weakprf.o)
                0x0011df68                cscps_prf_itf_get
 .text.anpc_prf_itf_get
                0x0011df6c        0x4 C:/Users/fg7fww/_Install/App/DemoBoards/RSL10/Packages_RSL10_2.0/ONSemiconductor/RSL10/2.0.0//lib/ble_core/release\libweak_prf.a(weakprf.o)
                0x0011df6c                anpc_prf_itf_get
 .text.anps_prf_itf_get
                0x0011df70        0x4 C:/Users/fg7fww/_Install/App/DemoBoards/RSL10/Packages_RSL10_2.0/ONSemiconductor/RSL10/2.0.0//lib/ble_core/release\libweak_prf.a(weakprf.o)
                0x0011df70                anps_prf_itf_get
 .text.paspc_prf_itf_get
                0x0011df74        0x4 C:/Users/fg7fww/_Install/App/DemoBoards/RSL10/Packages_RSL10_2.0/ONSemiconductor/RSL10/2.0.0//lib/ble_core/release\libweak_prf.a(weakprf.o)
                0x0011df74                paspc_prf_itf_get
 .text.pasps_prf_itf_get
                0x0011df78        0x4 C:/Users/fg7fww/_Install/App/DemoBoards/RSL10/Packages_RSL10_2.0/ONSemiconductor/RSL10/2.0.0//lib/ble_core/release\libweak_prf.a(weakprf.o)
                0x0011df78                pasps_prf_itf_get
 .text.cppc_prf_itf_get
                0x0011df7c        0x4 C:/Users/fg7fww/_Install/App/DemoBoards/RSL10/Packages_RSL10_2.0/ONSemiconductor/RSL10/2.0.0//lib/ble_core/release\libweak_prf.a(weakprf.o)
                0x0011df7c                cppc_prf_itf_get
 .text.cpps_prf_itf_get
                0x0011df80        0x4 C:/Users/fg7fww/_Install/App/DemoBoards/RSL10/Packages_RSL10_2.0/ONSemiconductor/RSL10/2.0.0//lib/ble_core/release\libweak_prf.a(weakprf.o)
                0x0011df80                cpps_prf_itf_get
 .text.lanc_prf_itf_get
                0x0011df84        0x4 C:/Users/fg7fww/_Install/App/DemoBoards/RSL10/Packages_RSL10_2.0/ONSemiconductor/RSL10/2.0.0//lib/ble_core/release\libweak_prf.a(weakprf.o)
                0x0011df84                lanc_prf_itf_get
 .text.lans_prf_itf_get
                0x0011df88        0x4 C:/Users/fg7fww/_Install/App/DemoBoards/RSL10/Packages_RSL10_2.0/ONSemiconductor/RSL10/2.0.0//lib/ble_core/release\libweak_prf.a(weakprf.o)
                0x0011df88                lans_prf_itf_get
 .text.wpts_prf_itf_get
                0x0011df8c        0x4 C:/Users/fg7fww/_Install/App/DemoBoards/RSL10/Packages_RSL10_2.0/ONSemiconductor/RSL10/2.0.0//lib/ble_core/release\libweak_prf.a(weakprf.o)
                0x0011df8c                wpts_prf_itf_get
 .text.wptc_prf_itf_get
                0x0011df90        0x4 C:/Users/fg7fww/_Install/App/DemoBoards/RSL10/Packages_RSL10_2.0/ONSemiconductor/RSL10/2.0.0//lib/ble_core/release\libweak_prf.a(weakprf.o)
                0x0011df90                wptc_prf_itf_get
 .text          0x0011df94      0x370 c:/program files (x86)/on semiconductor/rsl10 sdk/arm_tools/bin/../lib/gcc/arm-none-eabi/6.3.1/thumb/v7-m\libgcc.a(_arm_addsubdf3.o)
                0x0011df94                __aeabi_drsub
                0x0011df9c                __aeabi_dsub
                0x0011df9c                __subdf3
                0x0011dfa0                __aeabi_dadd
                0x0011dfa0                __adddf3
                0x0011e218                __floatunsidf
                0x0011e218                __aeabi_ui2d
                0x0011e238                __floatsidf
                0x0011e238                __aeabi_i2d
                0x0011e25c                __aeabi_f2d
                0x0011e25c                __extendsfdf2
                0x0011e298                __floatundidf
                0x0011e298                __aeabi_ul2d
                0x0011e2a8                __floatdidf
                0x0011e2a8                __aeabi_l2d
 .text          0x0011e304      0x424 c:/program files (x86)/on semiconductor/rsl10 sdk/arm_tools/bin/../lib/gcc/arm-none-eabi/6.3.1/thumb/v7-m\libgcc.a(_arm_muldivdf3.o)
                0x0011e304                __aeabi_dmul
                0x0011e304                __muldf3
                0x0011e558                __divdf3
                0x0011e558                __aeabi_ddiv
 .text          0x0011e728       0x50 c:/program files (x86)/on semiconductor/rsl10 sdk/arm_tools/bin/../lib/gcc/arm-none-eabi/6.3.1/thumb/v7-m\libgcc.a(_arm_fixdfsi.o)
                0x0011e728                __aeabi_d2iz
                0x0011e728                __fixdfsi
 .text          0x0011e778       0x40 c:/program files (x86)/on semiconductor/rsl10 sdk/arm_tools/bin/../lib/gcc/arm-none-eabi/6.3.1/thumb/v7-m\libgcc.a(_arm_fixunsdfsi.o)
                0x0011e778                __aeabi_d2uiz
                0x0011e778                __fixunsdfsi
 .text          0x0011e7b8       0xa0 c:/program files (x86)/on semiconductor/rsl10 sdk/arm_tools/bin/../lib/gcc/arm-none-eabi/6.3.1/thumb/v7-m\libgcc.a(_arm_truncdfsf2.o)
                0x0011e7b8                __truncdfsf2
                0x0011e7b8                __aeabi_d2f
 .text          0x0011e858       0x4c c:/program files (x86)/on semiconductor/rsl10 sdk/arm_tools/bin/../lib/gcc/arm-none-eabi/6.3.1/thumb/v7-m\libgcc.a(_arm_fixsfsi.o)
                0x0011e858                __aeabi_f2iz
                0x0011e858                __fixsfsi
 .text.__errno  0x0011e8a4        0xc c:/program files (x86)/on semiconductor/rsl10 sdk/arm_tools/bin/../lib/gcc/arm-none-eabi/6.3.1/../../../../arm-none-eabi/lib/thumb/v7-m\libg_nano.a(lib_a-errno.o)
                0x0011e8a4                __errno
 .text.malloc   0x0011e8b0       0x10 c:/program files (x86)/on semiconductor/rsl10 sdk/arm_tools/bin/../lib/gcc/arm-none-eabi/6.3.1/../../../../arm-none-eabi/lib/thumb/v7-m\libg_nano.a(lib_a-malloc.o)
                0x0011e8b0                malloc
 .text.free     0x0011e8c0       0x10 c:/program files (x86)/on semiconductor/rsl10 sdk/arm_tools/bin/../lib/gcc/arm-none-eabi/6.3.1/../../../../arm-none-eabi/lib/thumb/v7-m\libg_nano.a(lib_a-malloc.o)
                0x0011e8c0                free
 .text.memcmp   0x0011e8d0       0x1e c:/program files (x86)/on semiconductor/rsl10 sdk/arm_tools/bin/../lib/gcc/arm-none-eabi/6.3.1/../../../../arm-none-eabi/lib/thumb/v7-m\libg_nano.a(lib_a-memcmp.o)
                0x0011e8d0                memcmp
 .text.memcpy   0x0011e8ee       0x16 c:/program files (x86)/on semiconductor/rsl10 sdk/arm_tools/bin/../lib/gcc/arm-none-eabi/6.3.1/../../../../arm-none-eabi/lib/thumb/v7-m\libg_nano.a(lib_a-memcpy-stub.o)
                0x0011e8ee                memcpy
 .text.memset   0x0011e904       0x10 c:/program files (x86)/on semiconductor/rsl10 sdk/arm_tools/bin/../lib/gcc/arm-none-eabi/6.3.1/../../../../arm-none-eabi/lib/thumb/v7-m\libg_nano.a(lib_a-memset.o)
                0x0011e904                memset
 .text._free_r  0x0011e914       0x98 c:/program files (x86)/on semiconductor/rsl10 sdk/arm_tools/bin/../lib/gcc/arm-none-eabi/6.3.1/../../../../arm-none-eabi/lib/thumb/v7-m\libg_nano.a(lib_a-nano-freer.o)
                0x0011e914                _free_r
 .text._malloc_r
                0x0011e9ac       0xbc c:/program files (x86)/on semiconductor/rsl10 sdk/arm_tools/bin/../lib/gcc/arm-none-eabi/6.3.1/../../../../arm-none-eabi/lib/thumb/v7-m\libg_nano.a(lib_a-nano-mallocr.o)
                0x0011e9ac                _malloc_r
 .text.srand    0x0011ea68       0x50 c:/program files (x86)/on semiconductor/rsl10 sdk/arm_tools/bin/../lib/gcc/arm-none-eabi/6.3.1/../../../../arm-none-eabi/lib/thumb/v7-m\libg_nano.a(lib_a-rand.o)
                0x0011ea68                srand
 .text.rand     0x0011eab8       0x74 c:/program files (x86)/on semiconductor/rsl10 sdk/arm_tools/bin/../lib/gcc/arm-none-eabi/6.3.1/../../../../arm-none-eabi/lib/thumb/v7-m\libg_nano.a(lib_a-rand.o)
                0x0011eab8                rand
 .text._sbrk_r  0x0011eb2c       0x20 c:/program files (x86)/on semiconductor/rsl10 sdk/arm_tools/bin/../lib/gcc/arm-none-eabi/6.3.1/../../../../arm-none-eabi/lib/thumb/v7-m\libg_nano.a(lib_a-sbrkr.o)
                0x0011eb2c                _sbrk_r
 .text.__malloc_lock
                0x0011eb4c        0x2 c:/program files (x86)/on semiconductor/rsl10 sdk/arm_tools/bin/../lib/gcc/arm-none-eabi/6.3.1/../../../../arm-none-eabi/lib/thumb/v7-m\libg_nano.a(lib_a-mlock.o)
                0x0011eb4c                __malloc_lock
 .text.__malloc_unlock
                0x0011eb4e        0x2 c:/program files (x86)/on semiconductor/rsl10 sdk/arm_tools/bin/../lib/gcc/arm-none-eabi/6.3.1/../../../../arm-none-eabi/lib/thumb/v7-m\libg_nano.a(lib_a-mlock.o)
                0x0011eb4e                __malloc_unlock
 *(.rodata .rodata.*)
 .rodata.TASK_DESC_APP
                0x0011eb50       0x10 ./code/app_process.o
                0x0011eb50                TASK_DESC_APP
 .rodata.appm_default_handler
                0x0011eb60        0x8 ./code/app_process.o
                0x0011eb60                appm_default_handler
 .rodata.appm_default_state
                0x0011eb68       0x90 ./code/app_process.o
                0x0011eb68                appm_default_state
 .rodata        0x0011ebf8      0x144 ./code/ble_custom.o
 .rodata.GATTC_ReadReqInd.str1.4
                0x0011ed3c       0x36 ./code/ble_custom.o
 *fill*         0x0011ed72        0x2 
 .rodata.cs_atts_len
                0x0011ed74       0x34 ./code/ble_custom.o
                0x0011ed74                cs_atts_len
 .rodata        0x0011eda8        0xd ./code/ble_std.o
 *fill*         0x0011edb5        0x3 
 .rodata.Advertising_Start.str1.4
                0x0011edb8       0x14 ./code/ble_std.o
                                 0x11 (size before relaxing)
 .rodata.appm_add_svc_func_list
                0x0011edcc        0xc ./code/ble_std.o
                0x0011edcc                appm_add_svc_func_list
 .rodata.appm_enable_svc_func_list
                0x0011edd8        0x8 ./code/ble_std.o
                0x0011edd8                appm_enable_svc_func_list
 .rodata.rwip_coex_cfg
                0x0011ede0        0x5 C:/Users/fg7fww/_Install/App/DemoBoards/RSL10/Packages_RSL10_2.0/ONSemiconductor/RSL10/2.0.0//lib/ble_core/release\libblelib.a(rwip.o)
                0x0011ede0                rwip_coex_cfg
 .rodata.rwip_priority
                0x0011ede5        0xe C:/Users/fg7fww/_Install/App/DemoBoards/RSL10/Packages_RSL10_2.0/ONSemiconductor/RSL10/2.0.0//lib/ble_core/release\libblelib.a(rwip.o)
                0x0011ede5                rwip_priority
 *fill*         0x0011edf3        0x1 
 .rodata.RF_ATL_FREQ_TBL40
                0x0011edf4       0xa0 C:/Users/fg7fww/_Install/App/DemoBoards/RSL10/Packages_RSL10_2.0/ONSemiconductor/RSL10/2.0.0//lib/ble_core/release\libblelib.a(rf_atlas.o)
                0x0011edf4                RF_ATL_FREQ_TBL40
 .rodata.RF_ATL_REG_TBL_40_1MBPS
                0x0011ee94       0xc0 C:/Users/fg7fww/_Install/App/DemoBoards/RSL10/Packages_RSL10_2.0/ONSemiconductor/RSL10/2.0.0//lib/ble_core/release\libblelib.a(rf_atlas.o)
                0x0011ee94                RF_ATL_REG_TBL_40_1MBPS
 .rodata.RF_ATL_REG_TBL_40_2MBPS
                0x0011ef54       0xc0 C:/Users/fg7fww/_Install/App/DemoBoards/RSL10/Packages_RSL10_2.0/ONSemiconductor/RSL10/2.0.0//lib/ble_core/release\libblelib.a(rf_atlas.o)
                0x0011ef54                RF_ATL_REG_TBL_40_2MBPS
 .rodata.hci_def_evt_msk
                0x0011f014        0x8 C:/Users/fg7fww/_Install/App/DemoBoards/RSL10/Packages_RSL10_2.0/ONSemiconductor/RSL10/2.0.0//lib/ble_core/release\libblelib.a(hci.o)
 .rodata.hci_rsvd_evt_msk
                0x0011f01c        0x8 C:/Users/fg7fww/_Install/App/DemoBoards/RSL10/Packages_RSL10_2.0/ONSemiconductor/RSL10/2.0.0//lib/ble_core/release\libblelib.a(hci.o)
 .rodata.hci_cmd_desc_root_tab
                0x0011f024       0x30 C:/Users/fg7fww/_Install/App/DemoBoards/RSL10/Packages_RSL10_2.0/ONSemiconductor/RSL10/2.0.0//lib/ble_core/release\libblelib.a(hci_msg.o)
                0x0011f024                hci_cmd_desc_root_tab
 .rodata.hci_cmd_desc_tab_ctrl_bb
                0x0011f054       0x28 C:/Users/fg7fww/_Install/App/DemoBoards/RSL10/Packages_RSL10_2.0/ONSemiconductor/RSL10/2.0.0//lib/ble_core/release\libblelib.a(hci_msg.o)
                0x0011f054                hci_cmd_desc_tab_ctrl_bb
 .rodata.hci_cmd_desc_tab_info_par
                0x0011f07c       0x14 C:/Users/fg7fww/_Install/App/DemoBoards/RSL10/Packages_RSL10_2.0/ONSemiconductor/RSL10/2.0.0//lib/ble_core/release\libblelib.a(hci_msg.o)
                0x0011f07c                hci_cmd_desc_tab_info_par
 .rodata.hci_cmd_desc_tab_le
                0x0011f090       0xcc C:/Users/fg7fww/_Install/App/DemoBoards/RSL10/Packages_RSL10_2.0/ONSemiconductor/RSL10/2.0.0//lib/ble_core/release\libblelib.a(hci_msg.o)
                0x0011f090                hci_cmd_desc_tab_le
 .rodata.hci_cmd_desc_tab_lk_ctrl
                0x0011f15c        0xc C:/Users/fg7fww/_Install/App/DemoBoards/RSL10/Packages_RSL10_2.0/ONSemiconductor/RSL10/2.0.0//lib/ble_core/release\libblelib.a(hci_msg.o)
                0x0011f15c                hci_cmd_desc_tab_lk_ctrl
 .rodata.hci_cmd_desc_tab_stat_par
                0x0011f168        0x4 C:/Users/fg7fww/_Install/App/DemoBoards/RSL10/Packages_RSL10_2.0/ONSemiconductor/RSL10/2.0.0//lib/ble_core/release\libblelib.a(hci_msg.o)
                0x0011f168                hci_cmd_desc_tab_stat_par
 .rodata.hci_cmd_desc_tab_vs
                0x0011f16c        0xc C:/Users/fg7fww/_Install/App/DemoBoards/RSL10/Packages_RSL10_2.0/ONSemiconductor/RSL10/2.0.0//lib/ble_core/release\libblelib.a(hci_msg.o)
                0x0011f16c                hci_cmd_desc_tab_vs
 .rodata.hci_evt_desc_tab
                0x0011f178       0x12 C:/Users/fg7fww/_Install/App/DemoBoards/RSL10/Packages_RSL10_2.0/ONSemiconductor/RSL10/2.0.0//lib/ble_core/release\libblelib.a(hci_msg.o)
                0x0011f178                hci_evt_desc_tab
 .rodata.hci_evt_le_desc_tab
                0x0011f18a       0x18 C:/Users/fg7fww/_Install/App/DemoBoards/RSL10/Packages_RSL10_2.0/ONSemiconductor/RSL10/2.0.0//lib/ble_core/release\libblelib.a(hci_msg.o)
                0x0011f18a                hci_evt_le_desc_tab
 .rodata.CSWTCH.66
                0x0011f1a2        0x7 C:/Users/fg7fww/_Install/App/DemoBoards/RSL10/Packages_RSL10_2.0/ONSemiconductor/RSL10/2.0.0//lib/ble_core/release\libblelib.a(llm.o)
 *fill*         0x0011f1a9        0x3 
 .rodata.TASK_DESC_LLM
                0x0011f1ac       0x10 C:/Users/fg7fww/_Install/App/DemoBoards/RSL10/Packages_RSL10_2.0/ONSemiconductor/RSL10/2.0.0//lib/ble_core/release\libblelib.a(llm.o)
 .rodata.llm_dflt_bdaddr
                0x0011f1bc        0x6 C:/Users/fg7fww/_Install/App/DemoBoards/RSL10/Packages_RSL10_2.0/ONSemiconductor/RSL10/2.0.0//lib/ble_core/release\libblelib.a(llm.o)
 .rodata.llm_local_cmds
                0x0011f1c2       0x40 C:/Users/fg7fww/_Install/App/DemoBoards/RSL10/Packages_RSL10_2.0/ONSemiconductor/RSL10/2.0.0//lib/ble_core/release\libblelib.a(llm.o)
                0x0011f1c2                llm_local_cmds
 .rodata.llm_local_data_len_values
                0x0011f202        0xc C:/Users/fg7fww/_Install/App/DemoBoards/RSL10/Packages_RSL10_2.0/ONSemiconductor/RSL10/2.0.0//lib/ble_core/release\libblelib.a(llm.o)
                0x0011f202                llm_local_data_len_values
 .rodata.llm_local_le_feats
                0x0011f20e        0x8 C:/Users/fg7fww/_Install/App/DemoBoards/RSL10/Packages_RSL10_2.0/ONSemiconductor/RSL10/2.0.0//lib/ble_core/release\libblelib.a(llm.o)
                0x0011f20e                llm_local_le_feats
 .rodata.llm_local_le_states
                0x0011f216        0x8 C:/Users/fg7fww/_Install/App/DemoBoards/RSL10/Packages_RSL10_2.0/ONSemiconductor/RSL10/2.0.0//lib/ble_core/release\libblelib.a(llm.o)
                0x0011f216                llm_local_le_states
 *fill*         0x0011f21e        0x2 
 .rodata.llm_default_handler
                0x0011f220        0x8 C:/Users/fg7fww/_Install/App/DemoBoards/RSL10/Packages_RSL10_2.0/ONSemiconductor/RSL10/2.0.0//lib/ble_core/release\libblelib.a(llm_task.o)
                0x0011f220                llm_default_handler
 .rodata.llm_default_state
                0x0011f228       0x40 C:/Users/fg7fww/_Install/App/DemoBoards/RSL10/Packages_RSL10_2.0/ONSemiconductor/RSL10/2.0.0//lib/ble_core/release\libblelib.a(llm_task.o)
 .rodata.LLM_AA_CT1
                0x0011f268        0x3 C:/Users/fg7fww/_Install/App/DemoBoards/RSL10/Packages_RSL10_2.0/ONSemiconductor/RSL10/2.0.0//lib/ble_core/release\libblelib.a(llm_util.o)
                0x0011f268                LLM_AA_CT1
 .rodata.LLM_AA_CT2
                0x0011f26b        0x2 C:/Users/fg7fww/_Install/App/DemoBoards/RSL10/Packages_RSL10_2.0/ONSemiconductor/RSL10/2.0.0//lib/ble_core/release\libblelib.a(llm_util.o)
                0x0011f26b                LLM_AA_CT2
 *fill*         0x0011f26d        0x3 
 .rodata.TASK_DESC_LLD
                0x0011f270       0x10 C:/Users/fg7fww/_Install/App/DemoBoards/RSL10/Packages_RSL10_2.0/ONSemiconductor/RSL10/2.0.0//lib/ble_core/release\libblelib.a(lld.o)
 .rodata.lld_pdu_adv_pk_desc_tab
                0x0011f280       0x54 C:/Users/fg7fww/_Install/App/DemoBoards/RSL10/Packages_RSL10_2.0/ONSemiconductor/RSL10/2.0.0//lib/ble_core/release\libblelib.a(lld_pdu.o)
                0x0011f280                lld_pdu_adv_pk_desc_tab
 .rodata.lld_pdu_llcp_pk_desc_tab
                0x0011f2d4      0x12c C:/Users/fg7fww/_Install/App/DemoBoards/RSL10/Packages_RSL10_2.0/ONSemiconductor/RSL10/2.0.0//lib/ble_core/release\libblelib.a(lld_pdu.o)
                0x0011f2d4                lld_pdu_llcp_pk_desc_tab
 .rodata.str1.1
                0x0011f400       0x46 C:/Users/fg7fww/_Install/App/DemoBoards/RSL10/Packages_RSL10_2.0/ONSemiconductor/RSL10/2.0.0//lib/ble_core/release\libblelib.a(lld_pdu.o)
                                 0x55 (size before relaxing)
 *fill*         0x0011f446        0x2 
 .rodata.TASK_DESC_LLC
                0x0011f448       0x10 C:/Users/fg7fww/_Install/App/DemoBoards/RSL10/Packages_RSL10_2.0/ONSemiconductor/RSL10/2.0.0//lib/ble_core/release\libblelib.a(llc.o)
 .rodata.llcp_pdu_handler
                0x0011f458       0xc8 C:/Users/fg7fww/_Install/App/DemoBoards/RSL10/Packages_RSL10_2.0/ONSemiconductor/RSL10/2.0.0//lib/ble_core/release\libblelib.a(llc_llcp.o)
 .rodata.llc_default_handler
                0x0011f520        0x8 C:/Users/fg7fww/_Install/App/DemoBoards/RSL10/Packages_RSL10_2.0/ONSemiconductor/RSL10/2.0.0//lib/ble_core/release\libblelib.a(llc_task.o)
                0x0011f520                llc_default_handler
 .rodata.llc_default_state
                0x0011f528       0x88 C:/Users/fg7fww/_Install/App/DemoBoards/RSL10/Packages_RSL10_2.0/ONSemiconductor/RSL10/2.0.0//lib/ble_core/release\libblelib.a(llc_task.o)
 .rodata.TASK_DESC_L2CC
                0x0011f5b0       0x10 C:/Users/fg7fww/_Install/App/DemoBoards/RSL10/Packages_RSL10_2.0/ONSemiconductor/RSL10/2.0.0//lib/ble_core/release\libblelib.a(l2cc.o)
 .rodata.l2cc_attribute_pkt_format
                0x0011f5c0       0x7c C:/Users/fg7fww/_Install/App/DemoBoards/RSL10/Packages_RSL10_2.0/ONSemiconductor/RSL10/2.0.0//lib/ble_core/release\libblelib.a(l2cc_pdu.o)
 .rodata.l2cc_security_pkt_format
                0x0011f63c       0x3c C:/Users/fg7fww/_Install/App/DemoBoards/RSL10/Packages_RSL10_2.0/ONSemiconductor/RSL10/2.0.0//lib/ble_core/release\libblelib.a(l2cc_pdu.o)
 .rodata.l2cc_signaling_pkt_format
                0x0011f678       0x5c C:/Users/fg7fww/_Install/App/DemoBoards/RSL10/Packages_RSL10_2.0/ONSemiconductor/RSL10/2.0.0//lib/ble_core/release\libblelib.a(l2cc_pdu.o)
 .rodata.str1.1
                0x0011f6d4       0x3e C:/Users/fg7fww/_Install/App/DemoBoards/RSL10/Packages_RSL10_2.0/ONSemiconductor/RSL10/2.0.0//lib/ble_core/release\libblelib.a(l2cc_pdu.o)
                                 0x55 (size before relaxing)
 *fill*         0x0011f712        0x2 
 .rodata.l2cc_default_handler
                0x0011f714        0x8 C:/Users/fg7fww/_Install/App/DemoBoards/RSL10/Packages_RSL10_2.0/ONSemiconductor/RSL10/2.0.0//lib/ble_core/release\libblelib.a(l2cc_task.o)
                0x0011f714                l2cc_default_handler
 .rodata.l2cc_default_state
                0x0011f71c       0x60 C:/Users/fg7fww/_Install/App/DemoBoards/RSL10/Packages_RSL10_2.0/ONSemiconductor/RSL10/2.0.0//lib/ble_core/release\libblelib.a(l2cc_task.o)
                0x0011f71c                l2cc_default_state
 .rodata        0x0011f77c        0x4 C:/Users/fg7fww/_Install/App/DemoBoards/RSL10/Packages_RSL10_2.0/ONSemiconductor/RSL10/2.0.0//lib/ble_core/release\libblelib.a(gattm.o)
 .rodata.TASK_DESC_GATTM
                0x0011f780       0x10 C:/Users/fg7fww/_Install/App/DemoBoards/RSL10/Packages_RSL10_2.0/ONSemiconductor/RSL10/2.0.0//lib/ble_core/release\libblelib.a(gattm.o)
 .rodata.gattm_att_db
                0x0011f790       0x20 C:/Users/fg7fww/_Install/App/DemoBoards/RSL10/Packages_RSL10_2.0/ONSemiconductor/RSL10/2.0.0//lib/ble_core/release\libblelib.a(gattm.o)
 .rodata.gattm_default_handler
                0x0011f7b0        0x8 C:/Users/fg7fww/_Install/App/DemoBoards/RSL10/Packages_RSL10_2.0/ONSemiconductor/RSL10/2.0.0//lib/ble_core/release\libblelib.a(gattm_task.o)
                0x0011f7b0                gattm_default_handler
 .rodata.gattm_default_state
                0x0011f7b8       0x40 C:/Users/fg7fww/_Install/App/DemoBoards/RSL10/Packages_RSL10_2.0/ONSemiconductor/RSL10/2.0.0//lib/ble_core/release\libblelib.a(gattm_task.o)
                0x0011f7b8                gattm_default_state
 .rodata.TASK_DESC_GATTC
                0x0011f7f8       0x10 C:/Users/fg7fww/_Install/App/DemoBoards/RSL10/Packages_RSL10_2.0/ONSemiconductor/RSL10/2.0.0//lib/ble_core/release\libblelib.a(gattc.o)
 .rodata        0x0011f808       0x1b C:/Users/fg7fww/_Install/App/DemoBoards/RSL10/Packages_RSL10_2.0/ONSemiconductor/RSL10/2.0.0//lib/ble_core/release\libblelib.a(gattc_task.o)
 *fill*         0x0011f823        0x1 
 .rodata.gattc_default_handler
                0x0011f824        0x8 C:/Users/fg7fww/_Install/App/DemoBoards/RSL10/Packages_RSL10_2.0/ONSemiconductor/RSL10/2.0.0//lib/ble_core/release\libblelib.a(gattc_task.o)
                0x0011f824                gattc_default_handler
 .rodata.gattc_default_state
                0x0011f82c       0xe0 C:/Users/fg7fww/_Install/App/DemoBoards/RSL10/Packages_RSL10_2.0/ONSemiconductor/RSL10/2.0.0//lib/ble_core/release\libblelib.a(gattc_task.o)
                0x0011f82c                gattc_default_state
 .rodata.atts_handlers
                0x0011f90c       0x68 C:/Users/fg7fww/_Install/App/DemoBoards/RSL10/Packages_RSL10_2.0/ONSemiconductor/RSL10/2.0.0//lib/ble_core/release\libblelib.a(atts.o)
                0x0011f90c                atts_handlers
 .rodata.atts_rights
                0x0011f974       0x24 C:/Users/fg7fww/_Install/App/DemoBoards/RSL10/Packages_RSL10_2.0/ONSemiconductor/RSL10/2.0.0//lib/ble_core/release\libblelib.a(atts.o)
 .rodata        0x0011f998       0x10 C:/Users/fg7fww/_Install/App/DemoBoards/RSL10/Packages_RSL10_2.0/ONSemiconductor/RSL10/2.0.0//lib/ble_core/release\libblelib.a(attm.o)
 .rodata.attc_handlers
                0x0011f9a8       0x70 C:/Users/fg7fww/_Install/App/DemoBoards/RSL10/Packages_RSL10_2.0/ONSemiconductor/RSL10/2.0.0//lib/ble_core/release\libblelib.a(attc.o)
                0x0011f9a8                attc_handlers
 .rodata.TASK_DESC_GAPM
                0x0011fa18       0x10 C:/Users/fg7fww/_Install/App/DemoBoards/RSL10/Packages_RSL10_2.0/ONSemiconductor/RSL10/2.0.0//lib/ble_core/release\libblelib.a(gapm.o)
 .rodata.gapm_att_db
                0x0011fa28       0x48 C:/Users/fg7fww/_Install/App/DemoBoards/RSL10/Packages_RSL10_2.0/ONSemiconductor/RSL10/2.0.0//lib/ble_core/release\libblelib.a(gapm.o)
 .rodata        0x0011fa70       0x24 C:/Users/fg7fww/_Install/App/DemoBoards/RSL10/Packages_RSL10_2.0/ONSemiconductor/RSL10/2.0.0//lib/ble_core/release\libblelib.a(gapm_task.o)
 .rodata.gapm_default_handler
                0x0011fa94        0x8 C:/Users/fg7fww/_Install/App/DemoBoards/RSL10/Packages_RSL10_2.0/ONSemiconductor/RSL10/2.0.0//lib/ble_core/release\libblelib.a(gapm_task.o)
                0x0011fa94                gapm_default_handler
 .rodata.gapm_default_state
                0x0011fa9c      0x100 C:/Users/fg7fww/_Install/App/DemoBoards/RSL10/Packages_RSL10_2.0/ONSemiconductor/RSL10/2.0.0//lib/ble_core/release\libblelib.a(gapm_task.o)
                0x0011fa9c                gapm_default_state
 .rodata.TASK_DESC_GAPC
                0x0011fb9c       0x10 C:/Users/fg7fww/_Install/App/DemoBoards/RSL10/Packages_RSL10_2.0/ONSemiconductor/RSL10/2.0.0//lib/ble_core/release\libblelib.a(gapc.o)
 .rodata        0x0011fbac        0xe C:/Users/fg7fww/_Install/App/DemoBoards/RSL10/Packages_RSL10_2.0/ONSemiconductor/RSL10/2.0.0//lib/ble_core/release\libblelib.a(gapc_task.o)
 *fill*         0x0011fbba        0x2 
 .rodata.gapc_default_handler
                0x0011fbbc        0x8 C:/Users/fg7fww/_Install/App/DemoBoards/RSL10/Packages_RSL10_2.0/ONSemiconductor/RSL10/2.0.0//lib/ble_core/release\libblelib.a(gapc_task.o)
                0x0011fbbc                gapc_default_handler
 .rodata.gapc_default_state
                0x0011fbc4      0x120 C:/Users/fg7fww/_Install/App/DemoBoards/RSL10/Packages_RSL10_2.0/ONSemiconductor/RSL10/2.0.0//lib/ble_core/release\libblelib.a(gapc_task.o)
                0x0011fbc4                gapc_default_state
 .rodata.BasePoint_x_256
                0x0011fce4       0x20 C:/Users/fg7fww/_Install/App/DemoBoards/RSL10/Packages_RSL10_2.0/ONSemiconductor/RSL10/2.0.0//lib/ble_core/release\libblelib.a(ecc_p256.o)
                0x0011fce4                BasePoint_x_256
 .rodata.BasePoint_y_256
                0x0011fd04       0x20 C:/Users/fg7fww/_Install/App/DemoBoards/RSL10/Packages_RSL10_2.0/ONSemiconductor/RSL10/2.0.0//lib/ble_core/release\libblelib.a(ecc_p256.o)
                0x0011fd04                BasePoint_y_256
 .rodata.bigHexP256
                0x0011fd24       0x2c C:/Users/fg7fww/_Install/App/DemoBoards/RSL10/Packages_RSL10_2.0/ONSemiconductor/RSL10/2.0.0//lib/ble_core/release\libblelib.a(ecc_p256.o)
                0x0011fd24                bigHexP256
 .rodata.ecc_Jacobian_InfinityPoint256
                0x0011fd50       0x84 C:/Users/fg7fww/_Install/App/DemoBoards/RSL10/Packages_RSL10_2.0/ONSemiconductor/RSL10/2.0.0//lib/ble_core/release\libblelib.a(ecc_p256.o)
                0x0011fd50                ecc_Jacobian_InfinityPoint256
 .rodata.maxSecretKey_256
                0x0011fdd4       0x20 C:/Users/fg7fww/_Install/App/DemoBoards/RSL10/Packages_RSL10_2.0/ONSemiconductor/RSL10/2.0.0//lib/ble_core/release\libblelib.a(ecc_p256.o)
                0x0011fdd4                maxSecretKey_256
 .rodata.veryBigHexP256
                0x0011fdf4       0x50 C:/Users/fg7fww/_Install/App/DemoBoards/RSL10/Packages_RSL10_2.0/ONSemiconductor/RSL10/2.0.0//lib/ble_core/release\libblelib.a(ecc_p256.o)
                0x0011fdf4                veryBigHexP256
 .rodata.llm_hci_command_handler_tab
                0x0011fe44      0x198 C:/Users/fg7fww/_Install/App/DemoBoards/RSL10/Packages_RSL10_2.0/ONSemiconductor/RSL10/2.0.0//lib/ble_core/release\libblelib.a(llm_hci.o)
 .rodata.llc_hci_command_handler_tab
                0x0011ffdc       0x90 C:/Users/fg7fww/_Install/App/DemoBoards/RSL10/Packages_RSL10_2.0/ONSemiconductor/RSL10/2.0.0//lib/ble_core/release\libblelib.a(llc_hci.o)
 .rodata.CSWTCH.14
                0x0012006c        0x3 C:/Users/fg7fww/_Install/App/DemoBoards/RSL10/Packages_RSL10_2.0/ONSemiconductor/RSL10/2.0.0//lib/ble_core/release\libblelib.a(l2cc_sig.o)
 .rodata.CSWTCH.7
                0x0012006f        0xc C:/Users/fg7fww/_Install/App/DemoBoards/RSL10/Packages_RSL10_2.0/ONSemiconductor/RSL10/2.0.0//lib/ble_core/release\libblelib.a(l2cc_sig.o)
 *fill*         0x0012007b        0x1 
 .rodata.l2cc_sig_handlers
                0x0012007c       0x40 C:/Users/fg7fww/_Install/App/DemoBoards/RSL10/Packages_RSL10_2.0/ONSemiconductor/RSL10/2.0.0//lib/ble_core/release\libblelib.a(l2cc_sig.o)
                0x0012007c                l2cc_sig_handlers
 .rodata.smpc_pair_method
                0x001200bc       0x19 C:/Users/fg7fww/_Install/App/DemoBoards/RSL10/Packages_RSL10_2.0/ONSemiconductor/RSL10/2.0.0//lib/ble_core/release\libblelib.a(smpc.o)
 .rodata        0x001200d5       0x14 C:/Users/fg7fww/_Install/App/DemoBoards/RSL10/Packages_RSL10_2.0/ONSemiconductor/RSL10/2.0.0//lib/ble_core/release\libblelib.a(smpc_crypto.o)
 *fill*         0x001200e9        0x3 
 .rodata.smpc_construct_pdu
                0x001200ec       0x3c C:/Users/fg7fww/_Install/App/DemoBoards/RSL10/Packages_RSL10_2.0/ONSemiconductor/RSL10/2.0.0//lib/ble_core/release\libblelib.a(smpc_util.o)
                0x001200ec                smpc_construct_pdu
 .rodata.smpc_recv_pdu
                0x00120128       0x3c C:/Users/fg7fww/_Install/App/DemoBoards/RSL10/Packages_RSL10_2.0/ONSemiconductor/RSL10/2.0.0//lib/ble_core/release\libblelib.a(smpc_util.o)
                0x00120128                smpc_recv_pdu
 .rodata.gapm_hci_cmd_cmp_event_handler_tab
                0x00120164      0x148 C:/Users/fg7fww/_Install/App/DemoBoards/RSL10/Packages_RSL10_2.0/ONSemiconductor/RSL10/2.0.0//lib/ble_core/release\libblelib.a(gapm_hci.o)
 .rodata.gapm_hci_cmd_stat_event_handler_tab
                0x001202ac        0x8 C:/Users/fg7fww/_Install/App/DemoBoards/RSL10/Packages_RSL10_2.0/ONSemiconductor/RSL10/2.0.0//lib/ble_core/release\libblelib.a(gapm_hci.o)
 .rodata.gapm_hci_le_event_handler_tab
                0x001202b4       0x30 C:/Users/fg7fww/_Install/App/DemoBoards/RSL10/Packages_RSL10_2.0/ONSemiconductor/RSL10/2.0.0//lib/ble_core/release\libblelib.a(gapm_hci.o)
 .rodata.hci_cmd_cmp_event_handler_tab
                0x001202e4       0x40 C:/Users/fg7fww/_Install/App/DemoBoards/RSL10/Packages_RSL10_2.0/ONSemiconductor/RSL10/2.0.0//lib/ble_core/release\libblelib.a(gapc_hci.o)
 .rodata.hci_cmd_stat_event_handler_tab
                0x00120324       0x30 C:/Users/fg7fww/_Install/App/DemoBoards/RSL10/Packages_RSL10_2.0/ONSemiconductor/RSL10/2.0.0//lib/ble_core/release\libblelib.a(gapc_hci.o)
 .rodata.hci_event_handler_tab
                0x00120354       0x28 C:/Users/fg7fww/_Install/App/DemoBoards/RSL10/Packages_RSL10_2.0/ONSemiconductor/RSL10/2.0.0//lib/ble_core/release\libblelib.a(gapc_hci.o)
 .rodata.hci_le_event_handler_tab
                0x0012037c       0x30 C:/Users/fg7fww/_Install/App/DemoBoards/RSL10/Packages_RSL10_2.0/ONSemiconductor/RSL10/2.0.0//lib/ble_core/release\libblelib.a(gapc_hci.o)
 .rodata.CSWTCH.3
                0x001203ac        0x3 C:/Users/fg7fww/_Install/App/DemoBoards/RSL10/Packages_RSL10_2.0/ONSemiconductor/RSL10/2.0.0//lib/ble_core/release\libblelib.a(gapc_sig.o)
 .rodata.co_default_bdaddr
                0x001203af        0x6 C:/Users/fg7fww/_Install/App/DemoBoards/RSL10/Packages_RSL10_2.0/ONSemiconductor/RSL10/2.0.0//lib/ble_core/release\libkelib.a(co_utils.o)
                0x001203af                co_default_bdaddr
 .rodata.co_null_bdaddr
                0x001203b5        0x6 C:/Users/fg7fww/_Install/App/DemoBoards/RSL10/Packages_RSL10_2.0/ONSemiconductor/RSL10/2.0.0//lib/ble_core/release\libkelib.a(co_utils.o)
                0x001203b5                co_null_bdaddr
 *fill*         0x001203bb        0x1 
 .rodata.co_sca2ppm
                0x001203bc       0x10 C:/Users/fg7fww/_Install/App/DemoBoards/RSL10/Packages_RSL10_2.0/ONSemiconductor/RSL10/2.0.0//lib/ble_core/release\libkelib.a(co_utils.o)
                0x001203bc                co_sca2ppm
 .rodata.bas_att_db
                0x001203cc       0x28 C:/Users/fg7fww/_Install/App/DemoBoards/RSL10/Packages_RSL10_2.0/ONSemiconductor/RSL10/2.0.0//lib/ble_profiles/release\libbass.a(bass.o)
                0x001203cc                bas_att_db
 .rodata.bass_itf
                0x001203f4       0x10 C:/Users/fg7fww/_Install/App/DemoBoards/RSL10/Packages_RSL10_2.0/ONSemiconductor/RSL10/2.0.0//lib/ble_profiles/release\libbass.a(bass.o)
                0x001203f4                bass_itf
 .rodata.bass_default_handler
                0x00120404        0x8 C:/Users/fg7fww/_Install/App/DemoBoards/RSL10/Packages_RSL10_2.0/ONSemiconductor/RSL10/2.0.0//lib/ble_profiles/release\libbass.a(bass_task.o)
                0x00120404                bass_default_handler
 .rodata.bass_default_state
                0x0012040c       0x30 C:/Users/fg7fww/_Install/App/DemoBoards/RSL10/Packages_RSL10_2.0/ONSemiconductor/RSL10/2.0.0//lib/ble_profiles/release\libbass.a(bass_task.o)
                0x0012040c                bass_default_state
 .rodata.targetVoltage
                0x0012043c        0x7 C:/Users/fg7fww/_Install/App/DemoBoards/RSL10/Packages_RSL10_2.0/ONSemiconductor/RSL10/2.0.0//lib/release\libsyslib.a(rsl10_sys_rffe.o)
                0x0012043c                targetVoltage
                0x00120444                . = ALIGN (0x4)
 *fill*         0x00120443        0x1 
                0x00120444                __dsp_start__ = .
 *(.dsp .dsp.*)
                0x00120444                __dsp_end__ = .
                0x00120444                . = ALIGN (0x4)

.glue_7         0x00120444        0x0
 .glue_7        0x00120444        0x0 linker stubs

.glue_7t        0x00120444        0x0
 .glue_7t       0x00120444        0x0 linker stubs

.vfp11_veneer   0x00120444        0x0
 .vfp11_veneer  0x00120444        0x0 linker stubs

.v4_bx          0x00120444        0x0
 .v4_bx         0x00120444        0x0 linker stubs

.iplt           0x00120444        0x0
 .iplt          0x00120444        0x0 ./code/app_init.o

.rel.dyn        0x00120444        0x0
 .rel.iplt      0x00120444        0x0 ./code/app_init.o

.ARM.exidx.reset
                0x00120444        0x8
 .ARM.exidx.reset
                0x00120444        0x8 C:/Users/fg7fww/_Install/App/DemoBoards/RSL10/Packages_RSL10_2.0/ONSemiconductor/RSL10/2.0.0//lib/release\libcmsis.a(startup_rsl10.o)
                0x0012044c                . = ALIGN (0x4)
                0x0012044c                __data_init__ = .

.systemclock    0x20000000        0x4
                0x20000000                . = ALIGN (0x4)
 *(.systemclock)
 .systemclock   0x20000000        0x4 C:/Users/fg7fww/_Install/App/DemoBoards/RSL10/Packages_RSL10_2.0/ONSemiconductor/RSL10/2.0.0//lib/release\libcmsis.a(system_rsl10.o)
                0x20000000                SystemCoreClock

.data           0x20000004       0x84 load address 0x0012044c
                0x20000004                . = ALIGN (0x4)
                0x20000004                __data_start__ = .
 *(.data_begin .data_begin.*)
 *(.data .data.*)
 .data.all_ff_bytes
                0x20000004       0x20 C:/Users/fg7fww/_Install/App/DemoBoards/RSL10/Packages_RSL10_2.0/ONSemiconductor/RSL10/2.0.0//lib/release\libsyslib.a(rsl10_protocol.o)
 .data._impure_ptr
                0x20000024        0x4 c:/program files (x86)/on semiconductor/rsl10 sdk/arm_tools/bin/../lib/gcc/arm-none-eabi/6.3.1/../../../../arm-none-eabi/lib/thumb/v7-m\libg_nano.a(lib_a-impure.o)
                0x20000024                _impure_ptr
 .data.impure_data
                0x20000028       0x60 c:/program files (x86)/on semiconductor/rsl10 sdk/arm_tools/bin/../lib/gcc/arm-none-eabi/6.3.1/../../../../arm-none-eabi/lib/thumb/v7-m\libg_nano.a(lib_a-impure.o)
 *(.data_end .data_end.*)
                0x20000088                . = ALIGN (0x4)
                0x20000088                __data_end__ = .

.igot.plt       0x20000088        0x0 load address 0x001204d0
 .igot.plt      0x20000088        0x0 ./code/app_init.o

.bss            0x20000088     0x3720 load address 0x001204d0
                0x20000088                . = ALIGN (0x4)
                0x20000088                __bss_start__ = .
 *(.bss_begin .bss_begin.*)
 *(.bss .bss.*)
 .bss.toggle_cnt.25232
                0x20000088        0x1 ./code/app_process.o
 *fill*         0x20000089        0x3 
 .bss.gapmConfigCmd
                0x2000008c        0x4 ./code/ble_std.o
 .bss.period_clk
                0x20000090        0x4 C:/Users/fg7fww/_Install/App/DemoBoards/RSL10/Packages_RSL10_2.0/ONSemiconductor/RSL10/2.0.0//lib/ble_core/release\libblelib.a(rwip.o)
 .bss.rcosc_or_extclk
                0x20000094        0x1 C:/Users/fg7fww/_Install/App/DemoBoards/RSL10/Packages_RSL10_2.0/ONSemiconductor/RSL10/2.0.0//lib/ble_core/release\libblelib.a(rwip.o)
 *fill*         0x20000095        0x3 
 .bss.sleep_acc_error
                0x20000098        0x4 C:/Users/fg7fww/_Install/App/DemoBoards/RSL10/Packages_RSL10_2.0/ONSemiconductor/RSL10/2.0.0//lib/ble_core/release\libblelib.a(rwip.o)
 .bss.ble_rand_seed
                0x2000009c        0x4 C:/Users/fg7fww/_Install/App/DemoBoards/RSL10/Packages_RSL10_2.0/ONSemiconductor/RSL10/2.0.0//lib/ble_core/release\libblelib.a(rwble.o)
                0x2000009c                ble_rand_seed
 .bss.rf_atl_reg_buf
                0x200000a0       0x82 C:/Users/fg7fww/_Install/App/DemoBoards/RSL10/Packages_RSL10_2.0/ONSemiconductor/RSL10/2.0.0//lib/ble_core/release\libblelib.a(rf_atlas.o)
 .bss.ble_is_awake_flag
                0x20000122        0x1 C:/Users/fg7fww/_Install/App/DemoBoards/RSL10/Packages_RSL10_2.0/ONSemiconductor/RSL10/2.0.0//lib/ble_core/release\libblelib.a(lld_sleep.o)
 *fill*         0x20000123        0x1 
 .bss.lld_sleep_env
                0x20000124        0x4 C:/Users/fg7fww/_Install/App/DemoBoards/RSL10/Packages_RSL10_2.0/ONSemiconductor/RSL10/2.0.0//lib/ble_core/release\libblelib.a(lld_sleep.o)
 .bss.ea_env    0x20000128       0x20 C:/Users/fg7fww/_Install/App/DemoBoards/RSL10/Packages_RSL10_2.0/ONSemiconductor/RSL10/2.0.0//lib/ble_core/release\libblelib.a(ea.o)
 .bss.time_msb.11565
                0x20000148        0x1 C:/Users/fg7fww/_Install/App/DemoBoards/RSL10/Packages_RSL10_2.0/ONSemiconductor/RSL10/2.0.0//lib/ble_core/release\libblelib.a(ea.o)
 *fill*         0x20000149        0x3 
 .bss.ke_event_env
                0x2000014c       0x30 C:/Users/fg7fww/_Install/App/DemoBoards/RSL10/Packages_RSL10_2.0/ONSemiconductor/RSL10/2.0.0//lib/ble_core/release\libkelib.a(ke_event.o)
 .bss.ke_task_env
                0x2000017c       0xc4 C:/Users/fg7fww/_Install/App/DemoBoards/RSL10/Packages_RSL10_2.0/ONSemiconductor/RSL10/2.0.0//lib/ble_core/release\libkelib.a(ke_task.o)
 .bss.heapTop.8120
                0x20000240        0x4 C:/Users/fg7fww/_Install/App/DemoBoards/RSL10/Packages_RSL10_2.0/ONSemiconductor/RSL10/2.0.0//lib/release\libcmsis.a(sbrk.o)
 .bss.all_00_bytes
                0x20000244        0x6 C:/Users/fg7fww/_Install/App/DemoBoards/RSL10/Packages_RSL10_2.0/ONSemiconductor/RSL10/2.0.0//lib/release\libsyslib.a(rsl10_protocol.o)
 *fill*         0x2000024a        0x2 
 .bss.__malloc_free_list
                0x2000024c        0x4 c:/program files (x86)/on semiconductor/rsl10 sdk/arm_tools/bin/../lib/gcc/arm-none-eabi/6.3.1/../../../../arm-none-eabi/lib/thumb/v7-m\libg_nano.a(lib_a-nano-mallocr.o)
                0x2000024c                __malloc_free_list
 .bss.__malloc_sbrk_start
                0x20000250        0x4 c:/program files (x86)/on semiconductor/rsl10 sdk/arm_tools/bin/../lib/gcc/arm-none-eabi/6.3.1/../../../../arm-none-eabi/lib/thumb/v7-m\libg_nano.a(lib_a-nano-mallocr.o)
                0x20000250                __malloc_sbrk_start
 *(COMMON)
 COMMON         0x20000254       0x84 ./code/app_init.o
                0x20000254                app_env
 COMMON         0x200002d8        0x1 ./code/app_process.o
                0x200002d8                appm_state
 *fill*         0x200002d9        0x3 
 COMMON         0x200002dc        0x2 ./code/ble_bass.o
                0x200002dc                bass_support_env
 *fill*         0x200002de        0x2 
 COMMON         0x200002e0       0x8e ./code/ble_custom.o
                0x200002e0                cs_env
 *fill*         0x2000036e        0x2 
 COMMON         0x20000370       0x18 ./code/ble_std.o
                0x20000370                bdaddr
                0x20000376                bdaddr_type
                0x20000378                ble_env
 COMMON         0x20000388       0x1c ./code/spi_interface.o
                0x20000388                spi_if
 COMMON         0x200003a4       0x34 C:/Users/fg7fww/_Install/App/DemoBoards/RSL10/Packages_RSL10_2.0/ONSemiconductor/RSL10/2.0.0//lib/ble_core/release\libblelib.a(rwip.o)
                0x200003a4                rwip_rf
 COMMON         0x200003d8      0x390 C:/Users/fg7fww/_Install/App/DemoBoards/RSL10/Packages_RSL10_2.0/ONSemiconductor/RSL10/2.0.0//lib/ble_core/release\libblelib.a(prf-prf_utils.o)
                0x200003d8                prf_env
 COMMON         0x20000768       0x2c C:/Users/fg7fww/_Install/App/DemoBoards/RSL10/Packages_RSL10_2.0/ONSemiconductor/RSL10/2.0.0//lib/ble_core/release\libblelib.a(lld_evt.o)
                0x20000768                lld_evt_env
 COMMON         0x20000794        0x2 C:/Users/fg7fww/_Install/App/DemoBoards/RSL10/Packages_RSL10_2.0/ONSemiconductor/RSL10/2.0.0//lib/ble_core/release\libblelib.a(lld_sleep.o)
                0x20000794                lld_sleep_params
 COMMON         0x20000796       0x10 C:/Users/fg7fww/_Install/App/DemoBoards/RSL10/Packages_RSL10_2.0/ONSemiconductor/RSL10/2.0.0//lib/ble_core/release\libblelib.a(hci.o)
                0x20000796                hci_env
 COMMON         0x200007a6        0xa C:/Users/fg7fww/_Install/App/DemoBoards/RSL10/Packages_RSL10_2.0/ONSemiconductor/RSL10/2.0.0//lib/ble_core/release\libblelib.a(hci_fc.o)
                0x200007a6                hci_fc_env
 COMMON         0x200007b0       0xc8 C:/Users/fg7fww/_Install/App/DemoBoards/RSL10/Packages_RSL10_2.0/ONSemiconductor/RSL10/2.0.0//lib/ble_core/release\libblelib.a(llm.o)
                0x200007b0                llm_le_env
 COMMON         0x20000878        0x1 C:/Users/fg7fww/_Install/App/DemoBoards/RSL10/Packages_RSL10_2.0/ONSemiconductor/RSL10/2.0.0//lib/ble_core/release\libblelib.a(llm_task.o)
                0x20000878                llm_state
 *fill*         0x20000879        0x3 
 COMMON         0x2000087c       0x31 C:/Users/fg7fww/_Install/App/DemoBoards/RSL10/Packages_RSL10_2.0/ONSemiconductor/RSL10/2.0.0//lib/ble_core/release\libblelib.a(lld_pdu.o)
                0x2000087c                stat_cnt_enable
                0x20000880                stat_cnt_value
                0x200008ac                stat_cnt_conidx
 *fill*         0x200008ad        0x3 
 COMMON         0x200008b0       0x10 C:/Users/fg7fww/_Install/App/DemoBoards/RSL10/Packages_RSL10_2.0/ONSemiconductor/RSL10/2.0.0//lib/ble_core/release\libblelib.a(llc.o)
                0x200008b0                llc_env
 COMMON         0x200008c0        0x4 C:/Users/fg7fww/_Install/App/DemoBoards/RSL10/Packages_RSL10_2.0/ONSemiconductor/RSL10/2.0.0//lib/ble_core/release\libblelib.a(llc_task.o)
                0x200008c0                llc_state
 COMMON         0x200008c4      0x46c C:/Users/fg7fww/_Install/App/DemoBoards/RSL10/Packages_RSL10_2.0/ONSemiconductor/RSL10/2.0.0//lib/ble_core/release\libblelib.a(em_buf.o)
                0x200008c4                em_buf_env
 COMMON         0x20000d30        0xc C:/Users/fg7fww/_Install/App/DemoBoards/RSL10/Packages_RSL10_2.0/ONSemiconductor/RSL10/2.0.0//lib/ble_core/release\libblelib.a(l2cm.o)
                0x20000d30                l2cm_env
 COMMON         0x20000d3c       0x10 C:/Users/fg7fww/_Install/App/DemoBoards/RSL10/Packages_RSL10_2.0/ONSemiconductor/RSL10/2.0.0//lib/ble_core/release\libblelib.a(l2cc.o)
                0x20000d3c                l2cc_env
 COMMON         0x20000d4c        0x4 C:/Users/fg7fww/_Install/App/DemoBoards/RSL10/Packages_RSL10_2.0/ONSemiconductor/RSL10/2.0.0//lib/ble_core/release\libblelib.a(l2cc_task.o)
                0x20000d4c                l2cc_state
 COMMON         0x20000d50       0x20 C:/Users/fg7fww/_Install/App/DemoBoards/RSL10/Packages_RSL10_2.0/ONSemiconductor/RSL10/2.0.0//lib/ble_core/release\libblelib.a(gattm.o)
                0x20000d50                gattm_env
 COMMON         0x20000d70        0x1 C:/Users/fg7fww/_Install/App/DemoBoards/RSL10/Packages_RSL10_2.0/ONSemiconductor/RSL10/2.0.0//lib/ble_core/release\libblelib.a(gattm_task.o)
                0x20000d70                gattm_state
 *fill*         0x20000d71        0x3 
 COMMON         0x20000d74       0x10 C:/Users/fg7fww/_Install/App/DemoBoards/RSL10/Packages_RSL10_2.0/ONSemiconductor/RSL10/2.0.0//lib/ble_core/release\libblelib.a(gattc.o)
                0x20000d74                gattc_env
 COMMON         0x20000d84        0x4 C:/Users/fg7fww/_Install/App/DemoBoards/RSL10/Packages_RSL10_2.0/ONSemiconductor/RSL10/2.0.0//lib/ble_core/release\libblelib.a(gattc_task.o)
                0x20000d84                gattc_state
 COMMON         0x20000d88       0x7c C:/Users/fg7fww/_Install/App/DemoBoards/RSL10/Packages_RSL10_2.0/ONSemiconductor/RSL10/2.0.0//lib/ble_core/release\libblelib.a(gapm.o)
                0x20000d88                gapm_env
 COMMON         0x20000e04        0x1 C:/Users/fg7fww/_Install/App/DemoBoards/RSL10/Packages_RSL10_2.0/ONSemiconductor/RSL10/2.0.0//lib/ble_core/release\libblelib.a(gapm_task.o)
                0x20000e04                gapm_state
 *fill*         0x20000e05        0x3 
 COMMON         0x20000e08       0x10 C:/Users/fg7fww/_Install/App/DemoBoards/RSL10/Packages_RSL10_2.0/ONSemiconductor/RSL10/2.0.0//lib/ble_core/release\libblelib.a(gapc.o)
                0x20000e08                gapc_env
 COMMON         0x20000e18        0x4 C:/Users/fg7fww/_Install/App/DemoBoards/RSL10/Packages_RSL10_2.0/ONSemiconductor/RSL10/2.0.0//lib/ble_core/release\libblelib.a(gapc_task.o)
                0x20000e18                gapc_state
 COMMON         0x20000e1c        0x8 C:/Users/fg7fww/_Install/App/DemoBoards/RSL10/Packages_RSL10_2.0/ONSemiconductor/RSL10/2.0.0//lib/ble_core/release\libblelib.a(ecc_p256.o)
                0x20000e1c                ecc_env
 COMMON         0x20000e24       0x30 C:/Users/fg7fww/_Install/App/DemoBoards/RSL10/Packages_RSL10_2.0/ONSemiconductor/RSL10/2.0.0//lib/ble_core/release\libkelib.a(ke.o)
                0x20000e24                ke_env
 COMMON         0x20000e54     0x2950 C:/Users/fg7fww/_Install/App/DemoBoards/RSL10/Packages_RSL10_2.0/ONSemiconductor/RSL10/2.0.0//lib/ble_core/release\libkelib.a(rwip2.o)
                0x20000e54                rwip_heap_msg
                0x200018ec                rwip_env
                0x200018fc                rwip_heap_env
                0x2000238c                rwip_heap_db
                0x20003698                rwip_heap_non_ret
 COMMON         0x200037a4        0x4 c:/program files (x86)/on semiconductor/rsl10 sdk/arm_tools/bin/../lib/gcc/arm-none-eabi/6.3.1/../../../../arm-none-eabi/lib/thumb/v7-m\libg_nano.a(lib_a-reent.o)
                0x200037a4                errno
 *(.bss_end .bss_end.*)
                0x200037a8                . = ALIGN (0x4)
                0x200037a8                __bss_end__ = .

.noinit         0x200037a8        0x0
                0x200037a8                . = ALIGN (0x4)
                0x200037a8                __noinit_start__ = .
 *(.noinit .noinit.*)
                0x200037a8                . = ALIGN (0x4)
                0x200037a8                __noinit_end__ = .

._stack         0x200037a8      0x400 load address 0x00123bf0
                0x200037a8                . = ALIGN (0x4)
                0x20003ba8                . = (. + __Main_Stack_Size)
 *fill*         0x200037a8      0x400 
                0x20003ba8                . = ALIGN (0x4)
OUTPUT(BB_BLE2_Terminal.elf elf32-littlearm)

.debug_info     0x00000000    0x1fec5
 .debug_info    0x00000000     0x4ddd ./code/app_init.o
 .debug_info    0x00004ddd     0x473a ./code/app_process.o
 .debug_info    0x00009517     0x4d66 ./code/ble_bass.o
 .debug_info    0x0000e27d     0x4a56 ./code/ble_custom.o
 .debug_info    0x00012cd3     0x572c ./code/ble_std.o
 .debug_info    0x000183ff     0x4811 ./code/spi_interface.o
 .debug_info    0x0001cc10     0x3044 ./app.o
 .debug_info    0x0001fc54      0x271 C:/Users/fg7fww/_Install/App/DemoBoards/RSL10/Packages_RSL10_2.0/ONSemiconductor/RSL10/2.0.0//lib/ble_core/release\libweak_prf.a(weakprf.o)

.debug_abbrev   0x00000000     0x186e
 .debug_abbrev  0x00000000      0x344 ./code/app_init.o
 .debug_abbrev  0x00000344      0x340 ./code/app_process.o
 .debug_abbrev  0x00000684      0x2ec ./code/ble_bass.o
 .debug_abbrev  0x00000970      0x390 ./code/ble_custom.o
 .debug_abbrev  0x00000d00      0x489 ./code/ble_std.o
 .debug_abbrev  0x00001189      0x3df ./code/spi_interface.o
 .debug_abbrev  0x00001568      0x2a2 ./app.o
 .debug_abbrev  0x0000180a       0x64 C:/Users/fg7fww/_Install/App/DemoBoards/RSL10/Packages_RSL10_2.0/ONSemiconductor/RSL10/2.0.0//lib/ble_core/release\libweak_prf.a(weakprf.o)

.debug_loc      0x00000000     0x1ba7
 .debug_loc     0x00000000       0xb5 ./code/app_init.o
 .debug_loc     0x000000b5      0x21d ./code/app_process.o
 .debug_loc     0x000002d2      0x269 ./code/ble_bass.o
 .debug_loc     0x0000053b      0x897 ./code/ble_custom.o
 .debug_loc     0x00000dd2      0x8f7 ./code/ble_std.o
 .debug_loc     0x000016c9      0x4ac ./code/spi_interface.o
 .debug_loc     0x00001b75       0x32 ./app.o

.debug_aranges  0x00000000      0x228
 .debug_aranges
                0x00000000       0x28 ./code/app_init.o
 .debug_aranges
                0x00000028       0x30 ./code/app_process.o
 .debug_aranges
                0x00000058       0x48 ./code/ble_bass.o
 .debug_aranges
                0x000000a0       0x58 ./code/ble_custom.o
 .debug_aranges
                0x000000f8       0xa0 ./code/ble_std.o
 .debug_aranges
                0x00000198       0x50 ./code/spi_interface.o
 .debug_aranges
                0x000001e8       0x20 ./app.o
 .debug_aranges
                0x00000208       0x20 C:/Users/fg7fww/_Install/App/DemoBoards/RSL10/Packages_RSL10_2.0/ONSemiconductor/RSL10/2.0.0//lib/ble_core/release\libweak_prf.a(weakprf.o)

.debug_ranges   0x00000000      0x2d0
 .debug_ranges  0x00000000       0x18 ./code/app_init.o
 .debug_ranges  0x00000018       0x38 ./code/app_process.o
 .debug_ranges  0x00000050       0x50 ./code/ble_bass.o
 .debug_ranges  0x000000a0       0x78 ./code/ble_custom.o
 .debug_ranges  0x00000118      0x128 ./code/ble_std.o
 .debug_ranges  0x00000240       0x58 ./code/spi_interface.o
 .debug_ranges  0x00000298       0x28 ./app.o
 .debug_ranges  0x000002c0       0x10 C:/Users/fg7fww/_Install/App/DemoBoards/RSL10/Packages_RSL10_2.0/ONSemiconductor/RSL10/2.0.0//lib/ble_core/release\libweak_prf.a(weakprf.o)

.debug_line     0x00000000     0x3e9f
 .debug_line    0x00000000      0x8ce ./code/app_init.o
 .debug_line    0x000008ce      0x903 ./code/app_process.o
 .debug_line    0x000011d1      0x896 ./code/ble_bass.o
 .debug_line    0x00001a67      0x98d ./code/ble_custom.o
 .debug_line    0x000023f4      0xa75 ./code/ble_std.o
 .debug_line    0x00002e69      0x932 ./code/spi_interface.o
 .debug_line    0x0000379b      0x6c6 ./app.o
 .debug_line    0x00003e61       0x3e C:/Users/fg7fww/_Install/App/DemoBoards/RSL10/Packages_RSL10_2.0/ONSemiconductor/RSL10/2.0.0//lib/ble_core/release\libweak_prf.a(weakprf.o)

.debug_str      0x00000000     0xc135
 .debug_str     0x00000000     0x4ee7 ./code/app_init.o
                               0x540d (size before relaxing)
 .debug_str     0x00004ee7      0xe89 ./code/app_process.o
                               0x5970 (size before relaxing)
 .debug_str     0x00005d70     0x2231 ./code/ble_bass.o
                               0x7066 (size before relaxing)
 .debug_str     0x00007fa1      0x81a ./code/ble_custom.o
                               0x5834 (size before relaxing)
 .debug_str     0x000087bb      0xeec ./code/ble_std.o
                               0x664c (size before relaxing)
 .debug_str     0x000096a7      0x1e2 ./code/spi_interface.o
                               0x5121 (size before relaxing)
 .debug_str     0x00009889       0x41 ./app.o
                               0x21ba (size before relaxing)
 .debug_str     0x000098ca     0x286b C:/Users/fg7fww/_Install/App/DemoBoards/RSL10/Packages_RSL10_2.0/ONSemiconductor/RSL10/2.0.0//lib/ble_core/release\libweak_prf.a(weakprf.o)
                               0x288d (size before relaxing)

.comment        0x00000000       0x7f
 .comment       0x00000000       0x7f ./code/app_init.o
                                 0x80 (size before relaxing)
 .comment       0x0000007f       0x80 ./code/app_process.o
 .comment       0x0000007f       0x80 ./code/ble_bass.o
 .comment       0x0000007f       0x80 ./code/ble_custom.o
 .comment       0x0000007f       0x80 ./code/ble_std.o
 .comment       0x0000007f       0x80 ./code/spi_interface.o
 .comment       0x0000007f       0x80 ./app.o
 .comment       0x0000007f       0x80 C:/Users/fg7fww/_Install/App/DemoBoards/RSL10/Packages_RSL10_2.0/ONSemiconductor/RSL10/2.0.0//lib/ble_core/release\libblelib.a(rwip.o)
 .comment       0x0000007f       0x80 C:/Users/fg7fww/_Install/App/DemoBoards/RSL10/Packages_RSL10_2.0/ONSemiconductor/RSL10/2.0.0//lib/ble_core/release\libblelib.a(rwble.o)
 .comment       0x0000007f       0x80 C:/Users/fg7fww/_Install/App/DemoBoards/RSL10/Packages_RSL10_2.0/ONSemiconductor/RSL10/2.0.0//lib/ble_core/release\libblelib.a(rf_atlas.o)
 .comment       0x0000007f       0x80 C:/Users/fg7fww/_Install/App/DemoBoards/RSL10/Packages_RSL10_2.0/ONSemiconductor/RSL10/2.0.0//lib/ble_core/release\libblelib.a(prf-prf_utils.o)
 .comment       0x0000007f       0x80 C:/Users/fg7fww/_Install/App/DemoBoards/RSL10/Packages_RSL10_2.0/ONSemiconductor/RSL10/2.0.0//lib/ble_core/release\libblelib.a(lld_evt.o)
 .comment       0x0000007f       0x80 C:/Users/fg7fww/_Install/App/DemoBoards/RSL10/Packages_RSL10_2.0/ONSemiconductor/RSL10/2.0.0//lib/ble_core/release\libblelib.a(lld_sleep.o)
 .comment       0x0000007f       0x80 C:/Users/fg7fww/_Install/App/DemoBoards/RSL10/Packages_RSL10_2.0/ONSemiconductor/RSL10/2.0.0//lib/ble_core/release\libblelib.a(hci.o)
 .comment       0x0000007f       0x80 C:/Users/fg7fww/_Install/App/DemoBoards/RSL10/Packages_RSL10_2.0/ONSemiconductor/RSL10/2.0.0//lib/ble_core/release\libblelib.a(hci_fc.o)
 .comment       0x0000007f       0x80 C:/Users/fg7fww/_Install/App/DemoBoards/RSL10/Packages_RSL10_2.0/ONSemiconductor/RSL10/2.0.0//lib/ble_core/release\libblelib.a(hci_msg.o)
 .comment       0x0000007f       0x80 C:/Users/fg7fww/_Install/App/DemoBoards/RSL10/Packages_RSL10_2.0/ONSemiconductor/RSL10/2.0.0//lib/ble_core/release\libblelib.a(llm.o)
 .comment       0x0000007f       0x80 C:/Users/fg7fww/_Install/App/DemoBoards/RSL10/Packages_RSL10_2.0/ONSemiconductor/RSL10/2.0.0//lib/ble_core/release\libblelib.a(llm_task.o)
 .comment       0x0000007f       0x80 C:/Users/fg7fww/_Install/App/DemoBoards/RSL10/Packages_RSL10_2.0/ONSemiconductor/RSL10/2.0.0//lib/ble_core/release\libblelib.a(llm_util.o)
 .comment       0x0000007f       0x80 C:/Users/fg7fww/_Install/App/DemoBoards/RSL10/Packages_RSL10_2.0/ONSemiconductor/RSL10/2.0.0//lib/ble_core/release\libblelib.a(lld.o)
 .comment       0x0000007f       0x80 C:/Users/fg7fww/_Install/App/DemoBoards/RSL10/Packages_RSL10_2.0/ONSemiconductor/RSL10/2.0.0//lib/ble_core/release\libblelib.a(lld_pdu.o)
 .comment       0x0000007f       0x80 C:/Users/fg7fww/_Install/App/DemoBoards/RSL10/Packages_RSL10_2.0/ONSemiconductor/RSL10/2.0.0//lib/ble_core/release\libblelib.a(lld_util.o)
 .comment       0x0000007f       0x80 C:/Users/fg7fww/_Install/App/DemoBoards/RSL10/Packages_RSL10_2.0/ONSemiconductor/RSL10/2.0.0//lib/ble_core/release\libblelib.a(lld_wlcoex.o)
 .comment       0x0000007f       0x80 C:/Users/fg7fww/_Install/App/DemoBoards/RSL10/Packages_RSL10_2.0/ONSemiconductor/RSL10/2.0.0//lib/ble_core/release\libblelib.a(llc.o)
 .comment       0x0000007f       0x80 C:/Users/fg7fww/_Install/App/DemoBoards/RSL10/Packages_RSL10_2.0/ONSemiconductor/RSL10/2.0.0//lib/ble_core/release\libblelib.a(llc_llcp.o)
 .comment       0x0000007f       0x80 C:/Users/fg7fww/_Install/App/DemoBoards/RSL10/Packages_RSL10_2.0/ONSemiconductor/RSL10/2.0.0//lib/ble_core/release\libblelib.a(llc_task.o)
 .comment       0x0000007f       0x80 C:/Users/fg7fww/_Install/App/DemoBoards/RSL10/Packages_RSL10_2.0/ONSemiconductor/RSL10/2.0.0//lib/ble_core/release\libblelib.a(llc_util.o)
 .comment       0x0000007f       0x80 C:/Users/fg7fww/_Install/App/DemoBoards/RSL10/Packages_RSL10_2.0/ONSemiconductor/RSL10/2.0.0//lib/ble_core/release\libblelib.a(em_buf.o)
 .comment       0x0000007f       0x80 C:/Users/fg7fww/_Install/App/DemoBoards/RSL10/Packages_RSL10_2.0/ONSemiconductor/RSL10/2.0.0//lib/ble_core/release\libblelib.a(rwble_hl.o)
 .comment       0x0000007f       0x80 C:/Users/fg7fww/_Install/App/DemoBoards/RSL10/Packages_RSL10_2.0/ONSemiconductor/RSL10/2.0.0//lib/ble_core/release\libblelib.a(l2cm.o)
 .comment       0x0000007f       0x80 C:/Users/fg7fww/_Install/App/DemoBoards/RSL10/Packages_RSL10_2.0/ONSemiconductor/RSL10/2.0.0//lib/ble_core/release\libblelib.a(l2cc.o)
 .comment       0x0000007f       0x80 C:/Users/fg7fww/_Install/App/DemoBoards/RSL10/Packages_RSL10_2.0/ONSemiconductor/RSL10/2.0.0//lib/ble_core/release\libblelib.a(l2cc_lecb.o)
 .comment       0x0000007f       0x80 C:/Users/fg7fww/_Install/App/DemoBoards/RSL10/Packages_RSL10_2.0/ONSemiconductor/RSL10/2.0.0//lib/ble_core/release\libblelib.a(l2cc_pdu.o)
 .comment       0x0000007f       0x80 C:/Users/fg7fww/_Install/App/DemoBoards/RSL10/Packages_RSL10_2.0/ONSemiconductor/RSL10/2.0.0//lib/ble_core/release\libblelib.a(l2cc_task.o)
 .comment       0x0000007f       0x80 C:/Users/fg7fww/_Install/App/DemoBoards/RSL10/Packages_RSL10_2.0/ONSemiconductor/RSL10/2.0.0//lib/ble_core/release\libblelib.a(gattm.o)
 .comment       0x0000007f       0x80 C:/Users/fg7fww/_Install/App/DemoBoards/RSL10/Packages_RSL10_2.0/ONSemiconductor/RSL10/2.0.0//lib/ble_core/release\libblelib.a(gattm_task.o)
 .comment       0x0000007f       0x80 C:/Users/fg7fww/_Install/App/DemoBoards/RSL10/Packages_RSL10_2.0/ONSemiconductor/RSL10/2.0.0//lib/ble_core/release\libblelib.a(gattc.o)
 .comment       0x0000007f       0x80 C:/Users/fg7fww/_Install/App/DemoBoards/RSL10/Packages_RSL10_2.0/ONSemiconductor/RSL10/2.0.0//lib/ble_core/release\libblelib.a(gattc_task.o)
 .comment       0x0000007f       0x80 C:/Users/fg7fww/_Install/App/DemoBoards/RSL10/Packages_RSL10_2.0/ONSemiconductor/RSL10/2.0.0//lib/ble_core/release\libblelib.a(atts.o)
 .comment       0x0000007f       0x80 C:/Users/fg7fww/_Install/App/DemoBoards/RSL10/Packages_RSL10_2.0/ONSemiconductor/RSL10/2.0.0//lib/ble_core/release\libblelib.a(attm.o)
 .comment       0x0000007f       0x80 C:/Users/fg7fww/_Install/App/DemoBoards/RSL10/Packages_RSL10_2.0/ONSemiconductor/RSL10/2.0.0//lib/ble_core/release\libblelib.a(attm_db.o)
 .comment       0x0000007f       0x80 C:/Users/fg7fww/_Install/App/DemoBoards/RSL10/Packages_RSL10_2.0/ONSemiconductor/RSL10/2.0.0//lib/ble_core/release\libblelib.a(attc.o)
 .comment       0x0000007f       0x80 C:/Users/fg7fww/_Install/App/DemoBoards/RSL10/Packages_RSL10_2.0/ONSemiconductor/RSL10/2.0.0//lib/ble_core/release\libblelib.a(gapm.o)
 .comment       0x0000007f       0x80 C:/Users/fg7fww/_Install/App/DemoBoards/RSL10/Packages_RSL10_2.0/ONSemiconductor/RSL10/2.0.0//lib/ble_core/release\libblelib.a(gapm_task.o)
 .comment       0x0000007f       0x80 C:/Users/fg7fww/_Install/App/DemoBoards/RSL10/Packages_RSL10_2.0/ONSemiconductor/RSL10/2.0.0//lib/ble_core/release\libblelib.a(gapm_util.o)
 .comment       0x0000007f       0x80 C:/Users/fg7fww/_Install/App/DemoBoards/RSL10/Packages_RSL10_2.0/ONSemiconductor/RSL10/2.0.0//lib/ble_core/release\libblelib.a(gapc.o)
 .comment       0x0000007f       0x80 C:/Users/fg7fww/_Install/App/DemoBoards/RSL10/Packages_RSL10_2.0/ONSemiconductor/RSL10/2.0.0//lib/ble_core/release\libblelib.a(gapc_task.o)
 .comment       0x0000007f       0x80 C:/Users/fg7fww/_Install/App/DemoBoards/RSL10/Packages_RSL10_2.0/ONSemiconductor/RSL10/2.0.0//lib/ble_core/release\libblelib.a(ecc_p256.o)
 .comment       0x0000007f       0x80 C:/Users/fg7fww/_Install/App/DemoBoards/RSL10/Packages_RSL10_2.0/ONSemiconductor/RSL10/2.0.0//lib/ble_core/release\libblelib.a(ea.o)
 .comment       0x0000007f       0x80 C:/Users/fg7fww/_Install/App/DemoBoards/RSL10/Packages_RSL10_2.0/ONSemiconductor/RSL10/2.0.0//lib/ble_core/release\libblelib.a(llm_hci.o)
 .comment       0x0000007f       0x80 C:/Users/fg7fww/_Install/App/DemoBoards/RSL10/Packages_RSL10_2.0/ONSemiconductor/RSL10/2.0.0//lib/ble_core/release\libblelib.a(llc_ch_asses.o)
 .comment       0x0000007f       0x80 C:/Users/fg7fww/_Install/App/DemoBoards/RSL10/Packages_RSL10_2.0/ONSemiconductor/RSL10/2.0.0//lib/ble_core/release\libblelib.a(llc_hci.o)
 .comment       0x0000007f       0x80 C:/Users/fg7fww/_Install/App/DemoBoards/RSL10/Packages_RSL10_2.0/ONSemiconductor/RSL10/2.0.0//lib/ble_core/release\libblelib.a(l2cc_sig.o)
 .comment       0x0000007f       0x80 C:/Users/fg7fww/_Install/App/DemoBoards/RSL10/Packages_RSL10_2.0/ONSemiconductor/RSL10/2.0.0//lib/ble_core/release\libblelib.a(smpm_api.o)
 .comment       0x0000007f       0x80 C:/Users/fg7fww/_Install/App/DemoBoards/RSL10/Packages_RSL10_2.0/ONSemiconductor/RSL10/2.0.0//lib/ble_core/release\libblelib.a(smpc.o)
 .comment       0x0000007f       0x80 C:/Users/fg7fww/_Install/App/DemoBoards/RSL10/Packages_RSL10_2.0/ONSemiconductor/RSL10/2.0.0//lib/ble_core/release\libblelib.a(smpc_api.o)
 .comment       0x0000007f       0x80 C:/Users/fg7fww/_Install/App/DemoBoards/RSL10/Packages_RSL10_2.0/ONSemiconductor/RSL10/2.0.0//lib/ble_core/release\libblelib.a(smpc_crypto.o)
 .comment       0x0000007f       0x80 C:/Users/fg7fww/_Install/App/DemoBoards/RSL10/Packages_RSL10_2.0/ONSemiconductor/RSL10/2.0.0//lib/ble_core/release\libblelib.a(smpc_util.o)
 .comment       0x0000007f       0x80 C:/Users/fg7fww/_Install/App/DemoBoards/RSL10/Packages_RSL10_2.0/ONSemiconductor/RSL10/2.0.0//lib/ble_core/release\libblelib.a(gapm_hci.o)
 .comment       0x0000007f       0x80 C:/Users/fg7fww/_Install/App/DemoBoards/RSL10/Packages_RSL10_2.0/ONSemiconductor/RSL10/2.0.0//lib/ble_core/release\libblelib.a(gapc_hci.o)
 .comment       0x0000007f       0x80 C:/Users/fg7fww/_Install/App/DemoBoards/RSL10/Packages_RSL10_2.0/ONSemiconductor/RSL10/2.0.0//lib/ble_core/release\libblelib.a(gapc_sig.o)
 .comment       0x0000007f       0x80 C:/Users/fg7fww/_Install/App/DemoBoards/RSL10/Packages_RSL10_2.0/ONSemiconductor/RSL10/2.0.0//lib/ble_core/release\libkelib.a(ke.o)
 .comment       0x0000007f       0x80 C:/Users/fg7fww/_Install/App/DemoBoards/RSL10/Packages_RSL10_2.0/ONSemiconductor/RSL10/2.0.0//lib/ble_core/release\libkelib.a(ke_event.o)
 .comment       0x0000007f       0x80 C:/Users/fg7fww/_Install/App/DemoBoards/RSL10/Packages_RSL10_2.0/ONSemiconductor/RSL10/2.0.0//lib/ble_core/release\libkelib.a(ke_mem.o)
 .comment       0x0000007f       0x80 C:/Users/fg7fww/_Install/App/DemoBoards/RSL10/Packages_RSL10_2.0/ONSemiconductor/RSL10/2.0.0//lib/ble_core/release\libkelib.a(ke_msg.o)
 .comment       0x0000007f       0x80 C:/Users/fg7fww/_Install/App/DemoBoards/RSL10/Packages_RSL10_2.0/ONSemiconductor/RSL10/2.0.0//lib/ble_core/release\libkelib.a(ke_task.o)
 .comment       0x0000007f       0x80 C:/Users/fg7fww/_Install/App/DemoBoards/RSL10/Packages_RSL10_2.0/ONSemiconductor/RSL10/2.0.0//lib/ble_core/release\libkelib.a(ke_timer.o)
 .comment       0x0000007f       0x80 C:/Users/fg7fww/_Install/App/DemoBoards/RSL10/Packages_RSL10_2.0/ONSemiconductor/RSL10/2.0.0//lib/ble_core/release\libkelib.a(rst_grosstime.o)
 .comment       0x0000007f       0x80 C:/Users/fg7fww/_Install/App/DemoBoards/RSL10/Packages_RSL10_2.0/ONSemiconductor/RSL10/2.0.0//lib/ble_core/release\libkelib.a(rwip2.o)
 .comment       0x0000007f       0x80 C:/Users/fg7fww/_Install/App/DemoBoards/RSL10/Packages_RSL10_2.0/ONSemiconductor/RSL10/2.0.0//lib/ble_core/release\libkelib.a(co_list.o)
 .comment       0x0000007f       0x80 C:/Users/fg7fww/_Install/App/DemoBoards/RSL10/Packages_RSL10_2.0/ONSemiconductor/RSL10/2.0.0//lib/ble_core/release\libkelib.a(co_utils.o)
 .comment       0x0000007f       0x80 C:/Users/fg7fww/_Install/App/DemoBoards/RSL10/Packages_RSL10_2.0/ONSemiconductor/RSL10/2.0.0//lib/ble_core/release\libkelib.a(ke_queue.o)
 .comment       0x0000007f       0x80 C:/Users/fg7fww/_Install/App/DemoBoards/RSL10/Packages_RSL10_2.0/ONSemiconductor/RSL10/2.0.0//lib/ble_profiles/release\libbass.a(bass.o)
 .comment       0x0000007f       0x80 C:/Users/fg7fww/_Install/App/DemoBoards/RSL10/Packages_RSL10_2.0/ONSemiconductor/RSL10/2.0.0//lib/ble_profiles/release\libbass.a(bass_task.o)
 .comment       0x0000007f       0x80 C:/Users/fg7fww/_Install/App/DemoBoards/RSL10/Packages_RSL10_2.0/ONSemiconductor/RSL10/2.0.0//lib/release\libcmsis.a(start.o)
 .comment       0x0000007f       0x80 C:/Users/fg7fww/_Install/App/DemoBoards/RSL10/Packages_RSL10_2.0/ONSemiconductor/RSL10/2.0.0//lib/release\libcmsis.a(system_rsl10.o)
 .comment       0x0000007f       0x80 C:/Users/fg7fww/_Install/App/DemoBoards/RSL10/Packages_RSL10_2.0/ONSemiconductor/RSL10/2.0.0//lib/release\libcmsis.a(sbrk.o)
 .comment       0x0000007f       0x80 C:/Users/fg7fww/_Install/App/DemoBoards/RSL10/Packages_RSL10_2.0/ONSemiconductor/RSL10/2.0.0//lib/release\libsyslib.a(rsl10_protocol.o)
 .comment       0x0000007f       0x80 C:/Users/fg7fww/_Install/App/DemoBoards/RSL10/Packages_RSL10_2.0/ONSemiconductor/RSL10/2.0.0//lib/release\libsyslib.a(rsl10_sys_dma.o)
 .comment       0x0000007f       0x80 C:/Users/fg7fww/_Install/App/DemoBoards/RSL10/Packages_RSL10_2.0/ONSemiconductor/RSL10/2.0.0//lib/release\libsyslib.a(rsl10_sys_rffe.o)
 .comment       0x0000007f       0x80 C:/Users/fg7fww/_Install/App/DemoBoards/RSL10/Packages_RSL10_2.0/ONSemiconductor/RSL10/2.0.0//lib/release\libsyslib.a(rsl10_sys_power.o)
 .comment       0x0000007f       0x80 C:/Users/fg7fww/_Install/App/DemoBoards/RSL10/Packages_RSL10_2.0/ONSemiconductor/RSL10/2.0.0//lib/ble_core/release\libweak_prf.a(weakprf.o)

.ARM.attributes
                0x00000000       0x31
 .ARM.attributes
                0x00000000       0x33 ./code/app_init.o
 .ARM.attributes
                0x00000033       0x33 ./code/app_process.o
 .ARM.attributes
                0x00000066       0x33 ./code/ble_bass.o
 .ARM.attributes
                0x00000099       0x33 ./code/ble_custom.o
 .ARM.attributes
                0x000000cc       0x33 ./code/ble_std.o
 .ARM.attributes
                0x000000ff       0x33 ./code/spi_interface.o
 .ARM.attributes
                0x00000132       0x33 ./app.o
 .ARM.attributes
                0x00000165       0x33 C:/Users/fg7fww/_Install/App/DemoBoards/RSL10/Packages_RSL10_2.0/ONSemiconductor/RSL10/2.0.0//lib/ble_core/release\libblelib.a(rwip.o)
 .ARM.attributes
                0x00000198       0x33 C:/Users/fg7fww/_Install/App/DemoBoards/RSL10/Packages_RSL10_2.0/ONSemiconductor/RSL10/2.0.0//lib/ble_core/release\libblelib.a(rwble.o)
 .ARM.attributes
                0x000001cb       0x33 C:/Users/fg7fww/_Install/App/DemoBoards/RSL10/Packages_RSL10_2.0/ONSemiconductor/RSL10/2.0.0//lib/ble_core/release\libblelib.a(rf_atlas.o)
 .ARM.attributes
                0x000001fe       0x33 C:/Users/fg7fww/_Install/App/DemoBoards/RSL10/Packages_RSL10_2.0/ONSemiconductor/RSL10/2.0.0//lib/ble_core/release\libblelib.a(prf-prf_utils.o)
 .ARM.attributes
                0x00000231       0x33 C:/Users/fg7fww/_Install/App/DemoBoards/RSL10/Packages_RSL10_2.0/ONSemiconductor/RSL10/2.0.0//lib/ble_core/release\libblelib.a(lld_evt.o)
 .ARM.attributes
                0x00000264       0x33 C:/Users/fg7fww/_Install/App/DemoBoards/RSL10/Packages_RSL10_2.0/ONSemiconductor/RSL10/2.0.0//lib/ble_core/release\libblelib.a(lld_sleep.o)
 .ARM.attributes
                0x00000297       0x33 C:/Users/fg7fww/_Install/App/DemoBoards/RSL10/Packages_RSL10_2.0/ONSemiconductor/RSL10/2.0.0//lib/ble_core/release\libblelib.a(hci.o)
 .ARM.attributes
                0x000002ca       0x33 C:/Users/fg7fww/_Install/App/DemoBoards/RSL10/Packages_RSL10_2.0/ONSemiconductor/RSL10/2.0.0//lib/ble_core/release\libblelib.a(hci_fc.o)
 .ARM.attributes
                0x000002fd       0x33 C:/Users/fg7fww/_Install/App/DemoBoards/RSL10/Packages_RSL10_2.0/ONSemiconductor/RSL10/2.0.0//lib/ble_core/release\libblelib.a(hci_msg.o)
 .ARM.attributes
                0x00000330       0x33 C:/Users/fg7fww/_Install/App/DemoBoards/RSL10/Packages_RSL10_2.0/ONSemiconductor/RSL10/2.0.0//lib/ble_core/release\libblelib.a(llm.o)
 .ARM.attributes
                0x00000363       0x33 C:/Users/fg7fww/_Install/App/DemoBoards/RSL10/Packages_RSL10_2.0/ONSemiconductor/RSL10/2.0.0//lib/ble_core/release\libblelib.a(llm_task.o)
 .ARM.attributes
                0x00000396       0x33 C:/Users/fg7fww/_Install/App/DemoBoards/RSL10/Packages_RSL10_2.0/ONSemiconductor/RSL10/2.0.0//lib/ble_core/release\libblelib.a(llm_util.o)
 .ARM.attributes
                0x000003c9       0x33 C:/Users/fg7fww/_Install/App/DemoBoards/RSL10/Packages_RSL10_2.0/ONSemiconductor/RSL10/2.0.0//lib/ble_core/release\libblelib.a(lld.o)
 .ARM.attributes
                0x000003fc       0x33 C:/Users/fg7fww/_Install/App/DemoBoards/RSL10/Packages_RSL10_2.0/ONSemiconductor/RSL10/2.0.0//lib/ble_core/release\libblelib.a(lld_pdu.o)
 .ARM.attributes
                0x0000042f       0x33 C:/Users/fg7fww/_Install/App/DemoBoards/RSL10/Packages_RSL10_2.0/ONSemiconductor/RSL10/2.0.0//lib/ble_core/release\libblelib.a(lld_util.o)
 .ARM.attributes
                0x00000462       0x33 C:/Users/fg7fww/_Install/App/DemoBoards/RSL10/Packages_RSL10_2.0/ONSemiconductor/RSL10/2.0.0//lib/ble_core/release\libblelib.a(lld_wlcoex.o)
 .ARM.attributes
                0x00000495       0x33 C:/Users/fg7fww/_Install/App/DemoBoards/RSL10/Packages_RSL10_2.0/ONSemiconductor/RSL10/2.0.0//lib/ble_core/release\libblelib.a(llc.o)
 .ARM.attributes
                0x000004c8       0x33 C:/Users/fg7fww/_Install/App/DemoBoards/RSL10/Packages_RSL10_2.0/ONSemiconductor/RSL10/2.0.0//lib/ble_core/release\libblelib.a(llc_llcp.o)
 .ARM.attributes
                0x000004fb       0x33 C:/Users/fg7fww/_Install/App/DemoBoards/RSL10/Packages_RSL10_2.0/ONSemiconductor/RSL10/2.0.0//lib/ble_core/release\libblelib.a(llc_task.o)
 .ARM.attributes
                0x0000052e       0x33 C:/Users/fg7fww/_Install/App/DemoBoards/RSL10/Packages_RSL10_2.0/ONSemiconductor/RSL10/2.0.0//lib/ble_core/release\libblelib.a(llc_util.o)
 .ARM.attributes
                0x00000561       0x33 C:/Users/fg7fww/_Install/App/DemoBoards/RSL10/Packages_RSL10_2.0/ONSemiconductor/RSL10/2.0.0//lib/ble_core/release\libblelib.a(em_buf.o)
 .ARM.attributes
                0x00000594       0x33 C:/Users/fg7fww/_Install/App/DemoBoards/RSL10/Packages_RSL10_2.0/ONSemiconductor/RSL10/2.0.0//lib/ble_core/release\libblelib.a(rwble_hl.o)
 .ARM.attributes
                0x000005c7       0x33 C:/Users/fg7fww/_Install/App/DemoBoards/RSL10/Packages_RSL10_2.0/ONSemiconductor/RSL10/2.0.0//lib/ble_core/release\libblelib.a(l2cm.o)
 .ARM.attributes
                0x000005fa       0x33 C:/Users/fg7fww/_Install/App/DemoBoards/RSL10/Packages_RSL10_2.0/ONSemiconductor/RSL10/2.0.0//lib/ble_core/release\libblelib.a(l2cc.o)
 .ARM.attributes
                0x0000062d       0x33 C:/Users/fg7fww/_Install/App/DemoBoards/RSL10/Packages_RSL10_2.0/ONSemiconductor/RSL10/2.0.0//lib/ble_core/release\libblelib.a(l2cc_lecb.o)
 .ARM.attributes
                0x00000660       0x33 C:/Users/fg7fww/_Install/App/DemoBoards/RSL10/Packages_RSL10_2.0/ONSemiconductor/RSL10/2.0.0//lib/ble_core/release\libblelib.a(l2cc_pdu.o)
 .ARM.attributes
                0x00000693       0x33 C:/Users/fg7fww/_Install/App/DemoBoards/RSL10/Packages_RSL10_2.0/ONSemiconductor/RSL10/2.0.0//lib/ble_core/release\libblelib.a(l2cc_task.o)
 .ARM.attributes
                0x000006c6       0x33 C:/Users/fg7fww/_Install/App/DemoBoards/RSL10/Packages_RSL10_2.0/ONSemiconductor/RSL10/2.0.0//lib/ble_core/release\libblelib.a(gattm.o)
 .ARM.attributes
                0x000006f9       0x33 C:/Users/fg7fww/_Install/App/DemoBoards/RSL10/Packages_RSL10_2.0/ONSemiconductor/RSL10/2.0.0//lib/ble_core/release\libblelib.a(gattm_task.o)
 .ARM.attributes
                0x0000072c       0x33 C:/Users/fg7fww/_Install/App/DemoBoards/RSL10/Packages_RSL10_2.0/ONSemiconductor/RSL10/2.0.0//lib/ble_core/release\libblelib.a(gattc.o)
 .ARM.attributes
                0x0000075f       0x33 C:/Users/fg7fww/_Install/App/DemoBoards/RSL10/Packages_RSL10_2.0/ONSemiconductor/RSL10/2.0.0//lib/ble_core/release\libblelib.a(gattc_task.o)
 .ARM.attributes
                0x00000792       0x33 C:/Users/fg7fww/_Install/App/DemoBoards/RSL10/Packages_RSL10_2.0/ONSemiconductor/RSL10/2.0.0//lib/ble_core/release\libblelib.a(atts.o)
 .ARM.attributes
                0x000007c5       0x33 C:/Users/fg7fww/_Install/App/DemoBoards/RSL10/Packages_RSL10_2.0/ONSemiconductor/RSL10/2.0.0//lib/ble_core/release\libblelib.a(attm.o)
 .ARM.attributes
                0x000007f8       0x33 C:/Users/fg7fww/_Install/App/DemoBoards/RSL10/Packages_RSL10_2.0/ONSemiconductor/RSL10/2.0.0//lib/ble_core/release\libblelib.a(attm_db.o)
 .ARM.attributes
                0x0000082b       0x33 C:/Users/fg7fww/_Install/App/DemoBoards/RSL10/Packages_RSL10_2.0/ONSemiconductor/RSL10/2.0.0//lib/ble_core/release\libblelib.a(attc.o)
 .ARM.attributes
                0x0000085e       0x33 C:/Users/fg7fww/_Install/App/DemoBoards/RSL10/Packages_RSL10_2.0/ONSemiconductor/RSL10/2.0.0//lib/ble_core/release\libblelib.a(gapm.o)
 .ARM.attributes
                0x00000891       0x33 C:/Users/fg7fww/_Install/App/DemoBoards/RSL10/Packages_RSL10_2.0/ONSemiconductor/RSL10/2.0.0//lib/ble_core/release\libblelib.a(gapm_task.o)
 .ARM.attributes
                0x000008c4       0x33 C:/Users/fg7fww/_Install/App/DemoBoards/RSL10/Packages_RSL10_2.0/ONSemiconductor/RSL10/2.0.0//lib/ble_core/release\libblelib.a(gapm_util.o)
 .ARM.attributes
                0x000008f7       0x33 C:/Users/fg7fww/_Install/App/DemoBoards/RSL10/Packages_RSL10_2.0/ONSemiconductor/RSL10/2.0.0//lib/ble_core/release\libblelib.a(gapc.o)
 .ARM.attributes
                0x0000092a       0x33 C:/Users/fg7fww/_Install/App/DemoBoards/RSL10/Packages_RSL10_2.0/ONSemiconductor/RSL10/2.0.0//lib/ble_core/release\libblelib.a(gapc_task.o)
 .ARM.attributes
                0x0000095d       0x33 C:/Users/fg7fww/_Install/App/DemoBoards/RSL10/Packages_RSL10_2.0/ONSemiconductor/RSL10/2.0.0//lib/ble_core/release\libblelib.a(ecc_p256.o)
 .ARM.attributes
                0x00000990       0x33 C:/Users/fg7fww/_Install/App/DemoBoards/RSL10/Packages_RSL10_2.0/ONSemiconductor/RSL10/2.0.0//lib/ble_core/release\libblelib.a(ea.o)
 .ARM.attributes
                0x000009c3       0x33 C:/Users/fg7fww/_Install/App/DemoBoards/RSL10/Packages_RSL10_2.0/ONSemiconductor/RSL10/2.0.0//lib/ble_core/release\libblelib.a(llm_hci.o)
 .ARM.attributes
                0x000009f6       0x33 C:/Users/fg7fww/_Install/App/DemoBoards/RSL10/Packages_RSL10_2.0/ONSemiconductor/RSL10/2.0.0//lib/ble_core/release\libblelib.a(llc_ch_asses.o)
 .ARM.attributes
                0x00000a29       0x33 C:/Users/fg7fww/_Install/App/DemoBoards/RSL10/Packages_RSL10_2.0/ONSemiconductor/RSL10/2.0.0//lib/ble_core/release\libblelib.a(llc_hci.o)
 .ARM.attributes
                0x00000a5c       0x33 C:/Users/fg7fww/_Install/App/DemoBoards/RSL10/Packages_RSL10_2.0/ONSemiconductor/RSL10/2.0.0//lib/ble_core/release\libblelib.a(l2cc_sig.o)
 .ARM.attributes
                0x00000a8f       0x33 C:/Users/fg7fww/_Install/App/DemoBoards/RSL10/Packages_RSL10_2.0/ONSemiconductor/RSL10/2.0.0//lib/ble_core/release\libblelib.a(smpm_api.o)
 .ARM.attributes
                0x00000ac2       0x33 C:/Users/fg7fww/_Install/App/DemoBoards/RSL10/Packages_RSL10_2.0/ONSemiconductor/RSL10/2.0.0//lib/ble_core/release\libblelib.a(smpc.o)
 .ARM.attributes
                0x00000af5       0x33 C:/Users/fg7fww/_Install/App/DemoBoards/RSL10/Packages_RSL10_2.0/ONSemiconductor/RSL10/2.0.0//lib/ble_core/release\libblelib.a(smpc_api.o)
 .ARM.attributes
                0x00000b28       0x33 C:/Users/fg7fww/_Install/App/DemoBoards/RSL10/Packages_RSL10_2.0/ONSemiconductor/RSL10/2.0.0//lib/ble_core/release\libblelib.a(smpc_crypto.o)
 .ARM.attributes
                0x00000b5b       0x33 C:/Users/fg7fww/_Install/App/DemoBoards/RSL10/Packages_RSL10_2.0/ONSemiconductor/RSL10/2.0.0//lib/ble_core/release\libblelib.a(smpc_util.o)
 .ARM.attributes
                0x00000b8e       0x33 C:/Users/fg7fww/_Install/App/DemoBoards/RSL10/Packages_RSL10_2.0/ONSemiconductor/RSL10/2.0.0//lib/ble_core/release\libblelib.a(gapm_hci.o)
 .ARM.attributes
                0x00000bc1       0x33 C:/Users/fg7fww/_Install/App/DemoBoards/RSL10/Packages_RSL10_2.0/ONSemiconductor/RSL10/2.0.0//lib/ble_core/release\libblelib.a(gapc_hci.o)
 .ARM.attributes
                0x00000bf4       0x33 C:/Users/fg7fww/_Install/App/DemoBoards/RSL10/Packages_RSL10_2.0/ONSemiconductor/RSL10/2.0.0//lib/ble_core/release\libblelib.a(gapc_sig.o)
 .ARM.attributes
                0x00000c27       0x33 C:/Users/fg7fww/_Install/App/DemoBoards/RSL10/Packages_RSL10_2.0/ONSemiconductor/RSL10/2.0.0//lib/ble_core/release\libkelib.a(ke.o)
 .ARM.attributes
                0x00000c5a       0x33 C:/Users/fg7fww/_Install/App/DemoBoards/RSL10/Packages_RSL10_2.0/ONSemiconductor/RSL10/2.0.0//lib/ble_core/release\libkelib.a(ke_event.o)
 .ARM.attributes
                0x00000c8d       0x33 C:/Users/fg7fww/_Install/App/DemoBoards/RSL10/Packages_RSL10_2.0/ONSemiconductor/RSL10/2.0.0//lib/ble_core/release\libkelib.a(ke_mem.o)
 .ARM.attributes
                0x00000cc0       0x33 C:/Users/fg7fww/_Install/App/DemoBoards/RSL10/Packages_RSL10_2.0/ONSemiconductor/RSL10/2.0.0//lib/ble_core/release\libkelib.a(ke_msg.o)
 .ARM.attributes
                0x00000cf3       0x33 C:/Users/fg7fww/_Install/App/DemoBoards/RSL10/Packages_RSL10_2.0/ONSemiconductor/RSL10/2.0.0//lib/ble_core/release\libkelib.a(ke_task.o)
 .ARM.attributes
                0x00000d26       0x33 C:/Users/fg7fww/_Install/App/DemoBoards/RSL10/Packages_RSL10_2.0/ONSemiconductor/RSL10/2.0.0//lib/ble_core/release\libkelib.a(ke_timer.o)
 .ARM.attributes
                0x00000d59       0x33 C:/Users/fg7fww/_Install/App/DemoBoards/RSL10/Packages_RSL10_2.0/ONSemiconductor/RSL10/2.0.0//lib/ble_core/release\libkelib.a(rst_grosstime.o)
 .ARM.attributes
                0x00000d8c       0x33 C:/Users/fg7fww/_Install/App/DemoBoards/RSL10/Packages_RSL10_2.0/ONSemiconductor/RSL10/2.0.0//lib/ble_core/release\libkelib.a(rwip2.o)
 .ARM.attributes
                0x00000dbf       0x33 C:/Users/fg7fww/_Install/App/DemoBoards/RSL10/Packages_RSL10_2.0/ONSemiconductor/RSL10/2.0.0//lib/ble_core/release\libkelib.a(co_list.o)
 .ARM.attributes
                0x00000df2       0x33 C:/Users/fg7fww/_Install/App/DemoBoards/RSL10/Packages_RSL10_2.0/ONSemiconductor/RSL10/2.0.0//lib/ble_core/release\libkelib.a(co_utils.o)
 .ARM.attributes
                0x00000e25       0x33 C:/Users/fg7fww/_Install/App/DemoBoards/RSL10/Packages_RSL10_2.0/ONSemiconductor/RSL10/2.0.0//lib/ble_core/release\libkelib.a(ke_queue.o)
 .ARM.attributes
                0x00000e58       0x33 C:/Users/fg7fww/_Install/App/DemoBoards/RSL10/Packages_RSL10_2.0/ONSemiconductor/RSL10/2.0.0//lib/ble_profiles/release\libbass.a(bass.o)
 .ARM.attributes
                0x00000e8b       0x33 C:/Users/fg7fww/_Install/App/DemoBoards/RSL10/Packages_RSL10_2.0/ONSemiconductor/RSL10/2.0.0//lib/ble_profiles/release\libbass.a(bass_task.o)
 .ARM.attributes
                0x00000ebe       0x21 C:/Users/fg7fww/_Install/App/DemoBoards/RSL10/Packages_RSL10_2.0/ONSemiconductor/RSL10/2.0.0//lib/release\libcmsis.a(startup_rsl10.o)
 .ARM.attributes
                0x00000edf       0x33 C:/Users/fg7fww/_Install/App/DemoBoards/RSL10/Packages_RSL10_2.0/ONSemiconductor/RSL10/2.0.0//lib/release\libcmsis.a(start.o)
 .ARM.attributes
                0x00000f12       0x33 C:/Users/fg7fww/_Install/App/DemoBoards/RSL10/Packages_RSL10_2.0/ONSemiconductor/RSL10/2.0.0//lib/release\libcmsis.a(system_rsl10.o)
 .ARM.attributes
                0x00000f45       0x33 C:/Users/fg7fww/_Install/App/DemoBoards/RSL10/Packages_RSL10_2.0/ONSemiconductor/RSL10/2.0.0//lib/release\libcmsis.a(sbrk.o)
 .ARM.attributes
                0x00000f78       0x33 C:/Users/fg7fww/_Install/App/DemoBoards/RSL10/Packages_RSL10_2.0/ONSemiconductor/RSL10/2.0.0//lib/release\libsyslib.a(rsl10_protocol.o)
 .ARM.attributes
                0x00000fab       0x33 C:/Users/fg7fww/_Install/App/DemoBoards/RSL10/Packages_RSL10_2.0/ONSemiconductor/RSL10/2.0.0//lib/release\libsyslib.a(rsl10_sys_dma.o)
 .ARM.attributes
                0x00000fde       0x33 C:/Users/fg7fww/_Install/App/DemoBoards/RSL10/Packages_RSL10_2.0/ONSemiconductor/RSL10/2.0.0//lib/release\libsyslib.a(rsl10_sys_rffe.o)
 .ARM.attributes
                0x00001011       0x33 C:/Users/fg7fww/_Install/App/DemoBoards/RSL10/Packages_RSL10_2.0/ONSemiconductor/RSL10/2.0.0//lib/release\libsyslib.a(rsl10_sys_power.o)
 .ARM.attributes
                0x00001044       0x33 C:/Users/fg7fww/_Install/App/DemoBoards/RSL10/Packages_RSL10_2.0/ONSemiconductor/RSL10/2.0.0//lib/ble_core/release\libweak_prf.a(weakprf.o)
 .ARM.attributes
                0x00001077       0x1d c:/program files (x86)/on semiconductor/rsl10 sdk/arm_tools/bin/../lib/gcc/arm-none-eabi/6.3.1/thumb/v7-m\libgcc.a(_arm_addsubdf3.o)
 .ARM.attributes
                0x00001094       0x1d c:/program files (x86)/on semiconductor/rsl10 sdk/arm_tools/bin/../lib/gcc/arm-none-eabi/6.3.1/thumb/v7-m\libgcc.a(_arm_muldivdf3.o)
 .ARM.attributes
                0x000010b1       0x1d c:/program files (x86)/on semiconductor/rsl10 sdk/arm_tools/bin/../lib/gcc/arm-none-eabi/6.3.1/thumb/v7-m\libgcc.a(_arm_fixdfsi.o)
 .ARM.attributes
                0x000010ce       0x1d c:/program files (x86)/on semiconductor/rsl10 sdk/arm_tools/bin/../lib/gcc/arm-none-eabi/6.3.1/thumb/v7-m\libgcc.a(_arm_fixunsdfsi.o)
 .ARM.attributes
                0x000010eb       0x1d c:/program files (x86)/on semiconductor/rsl10 sdk/arm_tools/bin/../lib/gcc/arm-none-eabi/6.3.1/thumb/v7-m\libgcc.a(_arm_truncdfsf2.o)
 .ARM.attributes
                0x00001108       0x1d c:/program files (x86)/on semiconductor/rsl10 sdk/arm_tools/bin/../lib/gcc/arm-none-eabi/6.3.1/thumb/v7-m\libgcc.a(_arm_fixsfsi.o)
 .ARM.attributes
                0x00001125       0x2d c:/program files (x86)/on semiconductor/rsl10 sdk/arm_tools/bin/../lib/gcc/arm-none-eabi/6.3.1/../../../../arm-none-eabi/lib/thumb/v7-m\libg_nano.a(lib_a-errno.o)
 .ARM.attributes
                0x00001152       0x2d c:/program files (x86)/on semiconductor/rsl10 sdk/arm_tools/bin/../lib/gcc/arm-none-eabi/6.3.1/../../../../arm-none-eabi/lib/thumb/v7-m\libg_nano.a(lib_a-impure.o)
 .ARM.attributes
                0x0000117f       0x2d c:/program files (x86)/on semiconductor/rsl10 sdk/arm_tools/bin/../lib/gcc/arm-none-eabi/6.3.1/../../../../arm-none-eabi/lib/thumb/v7-m\libg_nano.a(lib_a-malloc.o)
 .ARM.attributes
                0x000011ac       0x2d c:/program files (x86)/on semiconductor/rsl10 sdk/arm_tools/bin/../lib/gcc/arm-none-eabi/6.3.1/../../../../arm-none-eabi/lib/thumb/v7-m\libg_nano.a(lib_a-memcmp.o)
 .ARM.attributes
                0x000011d9       0x2d c:/program files (x86)/on semiconductor/rsl10 sdk/arm_tools/bin/../lib/gcc/arm-none-eabi/6.3.1/../../../../arm-none-eabi/lib/thumb/v7-m\libg_nano.a(lib_a-memcpy-stub.o)
 .ARM.attributes
                0x00001206       0x2d c:/program files (x86)/on semiconductor/rsl10 sdk/arm_tools/bin/../lib/gcc/arm-none-eabi/6.3.1/../../../../arm-none-eabi/lib/thumb/v7-m\libg_nano.a(lib_a-memset.o)
 .ARM.attributes
                0x00001233       0x2d c:/program files (x86)/on semiconductor/rsl10 sdk/arm_tools/bin/../lib/gcc/arm-none-eabi/6.3.1/../../../../arm-none-eabi/lib/thumb/v7-m\libg_nano.a(lib_a-nano-freer.o)
 .ARM.attributes
                0x00001260       0x2d c:/program files (x86)/on semiconductor/rsl10 sdk/arm_tools/bin/../lib/gcc/arm-none-eabi/6.3.1/../../../../arm-none-eabi/lib/thumb/v7-m\libg_nano.a(lib_a-nano-mallocr.o)
 .ARM.attributes
                0x0000128d       0x2d c:/program files (x86)/on semiconductor/rsl10 sdk/arm_tools/bin/../lib/gcc/arm-none-eabi/6.3.1/../../../../arm-none-eabi/lib/thumb/v7-m\libg_nano.a(lib_a-rand.o)
 .ARM.attributes
                0x000012ba       0x2d c:/program files (x86)/on semiconductor/rsl10 sdk/arm_tools/bin/../lib/gcc/arm-none-eabi/6.3.1/../../../../arm-none-eabi/lib/thumb/v7-m\libg_nano.a(lib_a-sbrkr.o)
 .ARM.attributes
                0x000012e7       0x2d c:/program files (x86)/on semiconductor/rsl10 sdk/arm_tools/bin/../lib/gcc/arm-none-eabi/6.3.1/../../../../arm-none-eabi/lib/thumb/v7-m\libg_nano.a(lib_a-mlock.o)
 .ARM.attributes
                0x00001314       0x2d c:/program files (x86)/on semiconductor/rsl10 sdk/arm_tools/bin/../lib/gcc/arm-none-eabi/6.3.1/../../../../arm-none-eabi/lib/thumb/v7-m\libg_nano.a(lib_a-reent.o)

.stack          0x00000000      0x400
 .stack         0x00000000      0x400 C:/Users/fg7fww/_Install/App/DemoBoards/RSL10/Packages_RSL10_2.0/ONSemiconductor/RSL10/2.0.0//lib/release\libcmsis.a(startup_rsl10.o)
                0x00000000                __stack_mem

.heap           0x00000000        0x0
 .heap          0x00000000        0x0 C:/Users/fg7fww/_Install/App/DemoBoards/RSL10/Packages_RSL10_2.0/ONSemiconductor/RSL10/2.0.0//lib/release\libcmsis.a(startup_rsl10.o)

.debug_frame    0x00000000      0xbb0
 .debug_frame   0x00000000       0x44 ./code/app_init.o
 .debug_frame   0x00000044       0x50 ./code/app_process.o
 .debug_frame   0x00000094       0x9c ./code/ble_bass.o
 .debug_frame   0x00000130      0x108 ./code/ble_custom.o
 .debug_frame   0x00000238      0x1bc ./code/ble_std.o
 .debug_frame   0x000003f4       0xb4 ./code/spi_interface.o
 .debug_frame   0x000004a8       0x2c ./app.o
 .debug_frame   0x000004d4      0x330 C:/Users/fg7fww/_Install/App/DemoBoards/RSL10/Packages_RSL10_2.0/ONSemiconductor/RSL10/2.0.0//lib/ble_core/release\libweak_prf.a(weakprf.o)
 .debug_frame   0x00000804       0xac c:/program files (x86)/on semiconductor/rsl10 sdk/arm_tools/bin/../lib/gcc/arm-none-eabi/6.3.1/thumb/v7-m\libgcc.a(_arm_addsubdf3.o)
 .debug_frame   0x000008b0       0x50 c:/program files (x86)/on semiconductor/rsl10 sdk/arm_tools/bin/../lib/gcc/arm-none-eabi/6.3.1/thumb/v7-m\libgcc.a(_arm_muldivdf3.o)
 .debug_frame   0x00000900       0x24 c:/program files (x86)/on semiconductor/rsl10 sdk/arm_tools/bin/../lib/gcc/arm-none-eabi/6.3.1/thumb/v7-m\libgcc.a(_arm_fixdfsi.o)
 .debug_frame   0x00000924       0x24 c:/program files (x86)/on semiconductor/rsl10 sdk/arm_tools/bin/../lib/gcc/arm-none-eabi/6.3.1/thumb/v7-m\libgcc.a(_arm_fixunsdfsi.o)
 .debug_frame   0x00000948       0x24 c:/program files (x86)/on semiconductor/rsl10 sdk/arm_tools/bin/../lib/gcc/arm-none-eabi/6.3.1/thumb/v7-m\libgcc.a(_arm_truncdfsf2.o)
 .debug_frame   0x0000096c       0x24 c:/program files (x86)/on semiconductor/rsl10 sdk/arm_tools/bin/../lib/gcc/arm-none-eabi/6.3.1/thumb/v7-m\libgcc.a(_arm_fixsfsi.o)
 .debug_frame   0x00000990       0x20 c:/program files (x86)/on semiconductor/rsl10 sdk/arm_tools/bin/../lib/gcc/arm-none-eabi/6.3.1/../../../../arm-none-eabi/lib/thumb/v7-m\libg_nano.a(lib_a-errno.o)
 .debug_frame   0x000009b0       0x30 c:/program files (x86)/on semiconductor/rsl10 sdk/arm_tools/bin/../lib/gcc/arm-none-eabi/6.3.1/../../../../arm-none-eabi/lib/thumb/v7-m\libg_nano.a(lib_a-malloc.o)
 .debug_frame   0x000009e0       0x28 c:/program files (x86)/on semiconductor/rsl10 sdk/arm_tools/bin/../lib/gcc/arm-none-eabi/6.3.1/../../../../arm-none-eabi/lib/thumb/v7-m\libg_nano.a(lib_a-memcmp.o)
 .debug_frame   0x00000a08       0x28 c:/program files (x86)/on semiconductor/rsl10 sdk/arm_tools/bin/../lib/gcc/arm-none-eabi/6.3.1/../../../../arm-none-eabi/lib/thumb/v7-m\libg_nano.a(lib_a-memcpy-stub.o)
 .debug_frame   0x00000a30       0x20 c:/program files (x86)/on semiconductor/rsl10 sdk/arm_tools/bin/../lib/gcc/arm-none-eabi/6.3.1/../../../../arm-none-eabi/lib/thumb/v7-m\libg_nano.a(lib_a-memset.o)
 .debug_frame   0x00000a50       0x38 c:/program files (x86)/on semiconductor/rsl10 sdk/arm_tools/bin/../lib/gcc/arm-none-eabi/6.3.1/../../../../arm-none-eabi/lib/thumb/v7-m\libg_nano.a(lib_a-nano-freer.o)
 .debug_frame   0x00000a88       0x2c c:/program files (x86)/on semiconductor/rsl10 sdk/arm_tools/bin/../lib/gcc/arm-none-eabi/6.3.1/../../../../arm-none-eabi/lib/thumb/v7-m\libg_nano.a(lib_a-nano-mallocr.o)
 .debug_frame   0x00000ab4       0x44 c:/program files (x86)/on semiconductor/rsl10 sdk/arm_tools/bin/../lib/gcc/arm-none-eabi/6.3.1/../../../../arm-none-eabi/lib/thumb/v7-m\libg_nano.a(lib_a-rand.o)
 .debug_frame   0x00000af8       0x2c c:/program files (x86)/on semiconductor/rsl10 sdk/arm_tools/bin/../lib/gcc/arm-none-eabi/6.3.1/../../../../arm-none-eabi/lib/thumb/v7-m\libg_nano.a(lib_a-sbrkr.o)
 .debug_frame   0x00000b24       0x30 c:/program files (x86)/on semiconductor/rsl10 sdk/arm_tools/bin/../lib/gcc/arm-none-eabi/6.3.1/../../../../arm-none-eabi/lib/thumb/v7-m\libg_nano.a(lib_a-mlock.o)
 .debug_frame   0x00000b54       0x5c c:/program files (x86)/on semiconductor/rsl10 sdk/arm_tools/bin/../lib/gcc/arm-none-eabi/6.3.1/../../../../arm-none-eabi/lib/thumb/v7-m\libg_nano.a(lib_a-reent.o)

.debug_macro    0x00000000      0x8af
 .debug_macro   0x00000000       0x11 C:/Users/fg7fww/_Install/App/DemoBoards/RSL10/Packages_RSL10_2.0/ONSemiconductor/RSL10/2.0.0//lib/ble_core/release\libweak_prf.a(weakprf.o)
 .debug_macro   0x00000011      0x89e C:/Users/fg7fww/_Install/App/DemoBoards/RSL10/Packages_RSL10_2.0/ONSemiconductor/RSL10/2.0.0//lib/ble_core/release\libweak_prf.a(weakprf.o)
